
kernel.bin:     file format elf32-i386


Disassembly of section .text:

00001000 <_start>:
    1000:	66 87 db             	xchg   %bx,%bx
    1003:	bc 20 30 01 00       	mov    $0x13020,%esp
    1008:	c7 05 a4 99 03 00 00 	movl   $0x0,0x399a4
    100f:	00 00 00 
    1012:	0f 01 05 f4 99 03 00 	sgdtl  0x399f4
    1019:	e8 02 04 00 00       	call   1420 <cstart>
    101e:	0f 01 15 f4 99 03 00 	lgdtl  0x399f4
    1025:	0f 01 1d 00 39 01 00 	lidtl  0x13900
    102c:	ea 33 10 00 00 08 00 	ljmp   $0x8,$0x1033

00001033 <csinit>:
    1033:	31 c0                	xor    %eax,%eax
    1035:	66 b8 20 00          	mov    $0x20,%ax
    1039:	0f 00 d8             	ltr    %ax
    103c:	e9 74 04 00 00       	jmp    14b5 <kernel_main>
    1041:	90                   	nop
    1042:	90                   	nop
    1043:	90                   	nop
    1044:	90                   	nop
    1045:	90                   	nop
    1046:	90                   	nop
    1047:	90                   	nop
    1048:	90                   	nop
    1049:	90                   	nop
    104a:	90                   	nop
    104b:	90                   	nop
    104c:	90                   	nop
    104d:	90                   	nop
    104e:	90                   	nop
    104f:	90                   	nop

00001050 <hwint00>:
    1050:	e8 4c 03 00 00       	call   13a1 <save>
    1055:	e4 21                	in     $0x21,%al
    1057:	0c 01                	or     $0x1,%al
    1059:	e6 21                	out    %al,$0x21
    105b:	b0 20                	mov    $0x20,%al
    105d:	e6 20                	out    %al,$0x20
    105f:	fb                   	sti    
    1060:	6a 00                	push   $0x0
    1062:	ff 15 40 a4 03 00    	call   *0x3a440
    1068:	59                   	pop    %ecx
    1069:	fa                   	cli    
    106a:	e4 21                	in     $0x21,%al
    106c:	24 fe                	and    $0xfe,%al
    106e:	e6 21                	out    %al,$0x21
    1070:	c3                   	ret    
    1071:	90                   	nop
    1072:	90                   	nop
    1073:	90                   	nop
    1074:	90                   	nop
    1075:	90                   	nop
    1076:	90                   	nop
    1077:	90                   	nop
    1078:	90                   	nop
    1079:	90                   	nop
    107a:	90                   	nop
    107b:	90                   	nop
    107c:	90                   	nop
    107d:	90                   	nop
    107e:	90                   	nop
    107f:	90                   	nop

00001080 <hwint01>:
    1080:	e8 1c 03 00 00       	call   13a1 <save>
    1085:	e4 21                	in     $0x21,%al
    1087:	0c 02                	or     $0x2,%al
    1089:	e6 21                	out    %al,$0x21
    108b:	b0 20                	mov    $0x20,%al
    108d:	e6 20                	out    %al,$0x20
    108f:	fb                   	sti    
    1090:	6a 01                	push   $0x1
    1092:	ff 15 44 a4 03 00    	call   *0x3a444
    1098:	59                   	pop    %ecx
    1099:	fa                   	cli    
    109a:	e4 21                	in     $0x21,%al
    109c:	24 fd                	and    $0xfd,%al
    109e:	e6 21                	out    %al,$0x21
    10a0:	c3                   	ret    
    10a1:	90                   	nop
    10a2:	90                   	nop
    10a3:	90                   	nop
    10a4:	90                   	nop
    10a5:	90                   	nop
    10a6:	90                   	nop
    10a7:	90                   	nop
    10a8:	90                   	nop
    10a9:	90                   	nop
    10aa:	90                   	nop
    10ab:	90                   	nop
    10ac:	90                   	nop
    10ad:	90                   	nop
    10ae:	90                   	nop
    10af:	90                   	nop

000010b0 <hwint02>:
    10b0:	e8 ec 02 00 00       	call   13a1 <save>
    10b5:	e4 21                	in     $0x21,%al
    10b7:	0c 04                	or     $0x4,%al
    10b9:	e6 21                	out    %al,$0x21
    10bb:	b0 20                	mov    $0x20,%al
    10bd:	e6 20                	out    %al,$0x20
    10bf:	fb                   	sti    
    10c0:	6a 02                	push   $0x2
    10c2:	ff 15 48 a4 03 00    	call   *0x3a448
    10c8:	59                   	pop    %ecx
    10c9:	fa                   	cli    
    10ca:	e4 21                	in     $0x21,%al
    10cc:	24 fb                	and    $0xfb,%al
    10ce:	e6 21                	out    %al,$0x21
    10d0:	c3                   	ret    
    10d1:	90                   	nop
    10d2:	90                   	nop
    10d3:	90                   	nop
    10d4:	90                   	nop
    10d5:	90                   	nop
    10d6:	90                   	nop
    10d7:	90                   	nop
    10d8:	90                   	nop
    10d9:	90                   	nop
    10da:	90                   	nop
    10db:	90                   	nop
    10dc:	90                   	nop
    10dd:	90                   	nop
    10de:	90                   	nop
    10df:	90                   	nop

000010e0 <hwint03>:
    10e0:	e8 bc 02 00 00       	call   13a1 <save>
    10e5:	e4 21                	in     $0x21,%al
    10e7:	0c 08                	or     $0x8,%al
    10e9:	e6 21                	out    %al,$0x21
    10eb:	b0 20                	mov    $0x20,%al
    10ed:	e6 20                	out    %al,$0x20
    10ef:	fb                   	sti    
    10f0:	6a 03                	push   $0x3
    10f2:	ff 15 4c a4 03 00    	call   *0x3a44c
    10f8:	59                   	pop    %ecx
    10f9:	fa                   	cli    
    10fa:	e4 21                	in     $0x21,%al
    10fc:	24 f7                	and    $0xf7,%al
    10fe:	e6 21                	out    %al,$0x21
    1100:	c3                   	ret    
    1101:	90                   	nop
    1102:	90                   	nop
    1103:	90                   	nop
    1104:	90                   	nop
    1105:	90                   	nop
    1106:	90                   	nop
    1107:	90                   	nop
    1108:	90                   	nop
    1109:	90                   	nop
    110a:	90                   	nop
    110b:	90                   	nop
    110c:	90                   	nop
    110d:	90                   	nop
    110e:	90                   	nop
    110f:	90                   	nop

00001110 <hwint04>:
    1110:	e8 8c 02 00 00       	call   13a1 <save>
    1115:	e4 21                	in     $0x21,%al
    1117:	0c 10                	or     $0x10,%al
    1119:	e6 21                	out    %al,$0x21
    111b:	b0 20                	mov    $0x20,%al
    111d:	e6 20                	out    %al,$0x20
    111f:	fb                   	sti    
    1120:	6a 04                	push   $0x4
    1122:	ff 15 50 a4 03 00    	call   *0x3a450
    1128:	59                   	pop    %ecx
    1129:	fa                   	cli    
    112a:	e4 21                	in     $0x21,%al
    112c:	24 ef                	and    $0xef,%al
    112e:	e6 21                	out    %al,$0x21
    1130:	c3                   	ret    
    1131:	90                   	nop
    1132:	90                   	nop
    1133:	90                   	nop
    1134:	90                   	nop
    1135:	90                   	nop
    1136:	90                   	nop
    1137:	90                   	nop
    1138:	90                   	nop
    1139:	90                   	nop
    113a:	90                   	nop
    113b:	90                   	nop
    113c:	90                   	nop
    113d:	90                   	nop
    113e:	90                   	nop
    113f:	90                   	nop

00001140 <hwint05>:
    1140:	e8 5c 02 00 00       	call   13a1 <save>
    1145:	e4 21                	in     $0x21,%al
    1147:	0c 20                	or     $0x20,%al
    1149:	e6 21                	out    %al,$0x21
    114b:	b0 20                	mov    $0x20,%al
    114d:	e6 20                	out    %al,$0x20
    114f:	fb                   	sti    
    1150:	6a 05                	push   $0x5
    1152:	ff 15 54 a4 03 00    	call   *0x3a454
    1158:	59                   	pop    %ecx
    1159:	fa                   	cli    
    115a:	e4 21                	in     $0x21,%al
    115c:	24 df                	and    $0xdf,%al
    115e:	e6 21                	out    %al,$0x21
    1160:	c3                   	ret    
    1161:	90                   	nop
    1162:	90                   	nop
    1163:	90                   	nop
    1164:	90                   	nop
    1165:	90                   	nop
    1166:	90                   	nop
    1167:	90                   	nop
    1168:	90                   	nop
    1169:	90                   	nop
    116a:	90                   	nop
    116b:	90                   	nop
    116c:	90                   	nop
    116d:	90                   	nop
    116e:	90                   	nop
    116f:	90                   	nop

00001170 <hwint06>:
    1170:	e8 2c 02 00 00       	call   13a1 <save>
    1175:	e4 21                	in     $0x21,%al
    1177:	0c 40                	or     $0x40,%al
    1179:	e6 21                	out    %al,$0x21
    117b:	b0 20                	mov    $0x20,%al
    117d:	e6 20                	out    %al,$0x20
    117f:	fb                   	sti    
    1180:	6a 06                	push   $0x6
    1182:	ff 15 58 a4 03 00    	call   *0x3a458
    1188:	59                   	pop    %ecx
    1189:	fa                   	cli    
    118a:	e4 21                	in     $0x21,%al
    118c:	24 bf                	and    $0xbf,%al
    118e:	e6 21                	out    %al,$0x21
    1190:	c3                   	ret    
    1191:	90                   	nop
    1192:	90                   	nop
    1193:	90                   	nop
    1194:	90                   	nop
    1195:	90                   	nop
    1196:	90                   	nop
    1197:	90                   	nop
    1198:	90                   	nop
    1199:	90                   	nop
    119a:	90                   	nop
    119b:	90                   	nop
    119c:	90                   	nop
    119d:	90                   	nop
    119e:	90                   	nop
    119f:	90                   	nop

000011a0 <hwint07>:
    11a0:	e8 fc 01 00 00       	call   13a1 <save>
    11a5:	e4 21                	in     $0x21,%al
    11a7:	0c 80                	or     $0x80,%al
    11a9:	e6 21                	out    %al,$0x21
    11ab:	b0 20                	mov    $0x20,%al
    11ad:	e6 20                	out    %al,$0x20
    11af:	fb                   	sti    
    11b0:	6a 07                	push   $0x7
    11b2:	ff 15 5c a4 03 00    	call   *0x3a45c
    11b8:	59                   	pop    %ecx
    11b9:	fa                   	cli    
    11ba:	e4 21                	in     $0x21,%al
    11bc:	24 7f                	and    $0x7f,%al
    11be:	e6 21                	out    %al,$0x21
    11c0:	c3                   	ret    
    11c1:	90                   	nop
    11c2:	90                   	nop
    11c3:	90                   	nop
    11c4:	90                   	nop
    11c5:	90                   	nop
    11c6:	90                   	nop
    11c7:	90                   	nop
    11c8:	90                   	nop
    11c9:	90                   	nop
    11ca:	90                   	nop
    11cb:	90                   	nop
    11cc:	90                   	nop
    11cd:	90                   	nop
    11ce:	90                   	nop
    11cf:	90                   	nop

000011d0 <hwint08>:
    11d0:	e8 cc 01 00 00       	call   13a1 <save>
    11d5:	e4 a1                	in     $0xa1,%al
    11d7:	0c 01                	or     $0x1,%al
    11d9:	e6 a1                	out    %al,$0xa1
    11db:	b0 20                	mov    $0x20,%al
    11dd:	e6 20                	out    %al,$0x20
    11df:	90                   	nop
    11e0:	e6 a0                	out    %al,$0xa0
    11e2:	fb                   	sti    
    11e3:	6a 08                	push   $0x8
    11e5:	ff 15 60 a4 03 00    	call   *0x3a460
    11eb:	59                   	pop    %ecx
    11ec:	fa                   	cli    
    11ed:	e4 a1                	in     $0xa1,%al
    11ef:	24 fe                	and    $0xfe,%al
    11f1:	e6 a1                	out    %al,$0xa1
    11f3:	c3                   	ret    
    11f4:	90                   	nop
    11f5:	90                   	nop
    11f6:	90                   	nop
    11f7:	90                   	nop
    11f8:	90                   	nop
    11f9:	90                   	nop
    11fa:	90                   	nop
    11fb:	90                   	nop
    11fc:	90                   	nop
    11fd:	90                   	nop
    11fe:	90                   	nop
    11ff:	90                   	nop

00001200 <hwint09>:
    1200:	e8 9c 01 00 00       	call   13a1 <save>
    1205:	e4 a1                	in     $0xa1,%al
    1207:	0c 02                	or     $0x2,%al
    1209:	e6 a1                	out    %al,$0xa1
    120b:	b0 20                	mov    $0x20,%al
    120d:	e6 20                	out    %al,$0x20
    120f:	90                   	nop
    1210:	e6 a0                	out    %al,$0xa0
    1212:	fb                   	sti    
    1213:	6a 09                	push   $0x9
    1215:	ff 15 64 a4 03 00    	call   *0x3a464
    121b:	59                   	pop    %ecx
    121c:	fa                   	cli    
    121d:	e4 a1                	in     $0xa1,%al
    121f:	24 fd                	and    $0xfd,%al
    1221:	e6 a1                	out    %al,$0xa1
    1223:	c3                   	ret    
    1224:	90                   	nop
    1225:	90                   	nop
    1226:	90                   	nop
    1227:	90                   	nop
    1228:	90                   	nop
    1229:	90                   	nop
    122a:	90                   	nop
    122b:	90                   	nop
    122c:	90                   	nop
    122d:	90                   	nop
    122e:	90                   	nop
    122f:	90                   	nop

00001230 <hwint10>:
    1230:	e8 6c 01 00 00       	call   13a1 <save>
    1235:	e4 a1                	in     $0xa1,%al
    1237:	0c 04                	or     $0x4,%al
    1239:	e6 a1                	out    %al,$0xa1
    123b:	b0 20                	mov    $0x20,%al
    123d:	e6 20                	out    %al,$0x20
    123f:	90                   	nop
    1240:	e6 a0                	out    %al,$0xa0
    1242:	fb                   	sti    
    1243:	6a 0a                	push   $0xa
    1245:	ff 15 68 a4 03 00    	call   *0x3a468
    124b:	59                   	pop    %ecx
    124c:	fa                   	cli    
    124d:	e4 a1                	in     $0xa1,%al
    124f:	24 fb                	and    $0xfb,%al
    1251:	e6 a1                	out    %al,$0xa1
    1253:	c3                   	ret    
    1254:	90                   	nop
    1255:	90                   	nop
    1256:	90                   	nop
    1257:	90                   	nop
    1258:	90                   	nop
    1259:	90                   	nop
    125a:	90                   	nop
    125b:	90                   	nop
    125c:	90                   	nop
    125d:	90                   	nop
    125e:	90                   	nop
    125f:	90                   	nop

00001260 <hwint11>:
    1260:	e8 3c 01 00 00       	call   13a1 <save>
    1265:	e4 a1                	in     $0xa1,%al
    1267:	0c 08                	or     $0x8,%al
    1269:	e6 a1                	out    %al,$0xa1
    126b:	b0 20                	mov    $0x20,%al
    126d:	e6 20                	out    %al,$0x20
    126f:	90                   	nop
    1270:	e6 a0                	out    %al,$0xa0
    1272:	fb                   	sti    
    1273:	6a 0b                	push   $0xb
    1275:	ff 15 6c a4 03 00    	call   *0x3a46c
    127b:	59                   	pop    %ecx
    127c:	fa                   	cli    
    127d:	e4 a1                	in     $0xa1,%al
    127f:	24 f7                	and    $0xf7,%al
    1281:	e6 a1                	out    %al,$0xa1
    1283:	c3                   	ret    
    1284:	90                   	nop
    1285:	90                   	nop
    1286:	90                   	nop
    1287:	90                   	nop
    1288:	90                   	nop
    1289:	90                   	nop
    128a:	90                   	nop
    128b:	90                   	nop
    128c:	90                   	nop
    128d:	90                   	nop
    128e:	90                   	nop
    128f:	90                   	nop

00001290 <hwint12>:
    1290:	e8 0c 01 00 00       	call   13a1 <save>
    1295:	e4 a1                	in     $0xa1,%al
    1297:	0c 10                	or     $0x10,%al
    1299:	e6 a1                	out    %al,$0xa1
    129b:	b0 20                	mov    $0x20,%al
    129d:	e6 20                	out    %al,$0x20
    129f:	90                   	nop
    12a0:	e6 a0                	out    %al,$0xa0
    12a2:	fb                   	sti    
    12a3:	6a 0c                	push   $0xc
    12a5:	ff 15 70 a4 03 00    	call   *0x3a470
    12ab:	59                   	pop    %ecx
    12ac:	fa                   	cli    
    12ad:	e4 a1                	in     $0xa1,%al
    12af:	24 ef                	and    $0xef,%al
    12b1:	e6 a1                	out    %al,$0xa1
    12b3:	c3                   	ret    
    12b4:	90                   	nop
    12b5:	90                   	nop
    12b6:	90                   	nop
    12b7:	90                   	nop
    12b8:	90                   	nop
    12b9:	90                   	nop
    12ba:	90                   	nop
    12bb:	90                   	nop
    12bc:	90                   	nop
    12bd:	90                   	nop
    12be:	90                   	nop
    12bf:	90                   	nop

000012c0 <hwint13>:
    12c0:	e8 dc 00 00 00       	call   13a1 <save>
    12c5:	e4 a1                	in     $0xa1,%al
    12c7:	0c 20                	or     $0x20,%al
    12c9:	e6 a1                	out    %al,$0xa1
    12cb:	b0 20                	mov    $0x20,%al
    12cd:	e6 20                	out    %al,$0x20
    12cf:	90                   	nop
    12d0:	e6 a0                	out    %al,$0xa0
    12d2:	fb                   	sti    
    12d3:	6a 0d                	push   $0xd
    12d5:	ff 15 74 a4 03 00    	call   *0x3a474
    12db:	59                   	pop    %ecx
    12dc:	fa                   	cli    
    12dd:	e4 a1                	in     $0xa1,%al
    12df:	24 df                	and    $0xdf,%al
    12e1:	e6 a1                	out    %al,$0xa1
    12e3:	c3                   	ret    
    12e4:	90                   	nop
    12e5:	90                   	nop
    12e6:	90                   	nop
    12e7:	90                   	nop
    12e8:	90                   	nop
    12e9:	90                   	nop
    12ea:	90                   	nop
    12eb:	90                   	nop
    12ec:	90                   	nop
    12ed:	90                   	nop
    12ee:	90                   	nop
    12ef:	90                   	nop

000012f0 <hwint14>:
    12f0:	e8 ac 00 00 00       	call   13a1 <save>
    12f5:	e4 a1                	in     $0xa1,%al
    12f7:	0c 40                	or     $0x40,%al
    12f9:	e6 a1                	out    %al,$0xa1
    12fb:	b0 20                	mov    $0x20,%al
    12fd:	e6 20                	out    %al,$0x20
    12ff:	90                   	nop
    1300:	e6 a0                	out    %al,$0xa0
    1302:	fb                   	sti    
    1303:	6a 0e                	push   $0xe
    1305:	ff 15 78 a4 03 00    	call   *0x3a478
    130b:	59                   	pop    %ecx
    130c:	fa                   	cli    
    130d:	e4 a1                	in     $0xa1,%al
    130f:	24 bf                	and    $0xbf,%al
    1311:	e6 a1                	out    %al,$0xa1
    1313:	c3                   	ret    
    1314:	90                   	nop
    1315:	90                   	nop
    1316:	90                   	nop
    1317:	90                   	nop
    1318:	90                   	nop
    1319:	90                   	nop
    131a:	90                   	nop
    131b:	90                   	nop
    131c:	90                   	nop
    131d:	90                   	nop
    131e:	90                   	nop
    131f:	90                   	nop

00001320 <hwint15>:
    1320:	e8 7c 00 00 00       	call   13a1 <save>
    1325:	e4 a1                	in     $0xa1,%al
    1327:	0c 80                	or     $0x80,%al
    1329:	e6 a1                	out    %al,$0xa1
    132b:	b0 20                	mov    $0x20,%al
    132d:	e6 20                	out    %al,$0x20
    132f:	90                   	nop
    1330:	e6 a0                	out    %al,$0xa0
    1332:	fb                   	sti    
    1333:	6a 0f                	push   $0xf
    1335:	ff 15 7c a4 03 00    	call   *0x3a47c
    133b:	59                   	pop    %ecx
    133c:	fa                   	cli    
    133d:	e4 a1                	in     $0xa1,%al
    133f:	24 7f                	and    $0x7f,%al
    1341:	e6 a1                	out    %al,$0xa1
    1343:	c3                   	ret    

00001344 <divide_error>:
    1344:	6a ff                	push   $0xffffffff
    1346:	6a 00                	push   $0x0
    1348:	eb 4e                	jmp    1398 <exception>

0000134a <single_step_exception>:
    134a:	6a ff                	push   $0xffffffff
    134c:	6a 01                	push   $0x1
    134e:	eb 48                	jmp    1398 <exception>

00001350 <nmi>:
    1350:	6a ff                	push   $0xffffffff
    1352:	6a 02                	push   $0x2
    1354:	eb 42                	jmp    1398 <exception>

00001356 <breakpoint_exception>:
    1356:	6a ff                	push   $0xffffffff
    1358:	6a 03                	push   $0x3
    135a:	eb 3c                	jmp    1398 <exception>

0000135c <overflow>:
    135c:	6a ff                	push   $0xffffffff
    135e:	6a 04                	push   $0x4
    1360:	eb 36                	jmp    1398 <exception>

00001362 <bounds_check>:
    1362:	6a ff                	push   $0xffffffff
    1364:	6a 05                	push   $0x5
    1366:	eb 30                	jmp    1398 <exception>

00001368 <inval_opcode>:
    1368:	6a ff                	push   $0xffffffff
    136a:	6a 06                	push   $0x6
    136c:	eb 2a                	jmp    1398 <exception>

0000136e <copr_not_available>:
    136e:	6a ff                	push   $0xffffffff
    1370:	6a 07                	push   $0x7
    1372:	eb 24                	jmp    1398 <exception>

00001374 <double_fault>:
    1374:	6a 08                	push   $0x8
    1376:	eb 20                	jmp    1398 <exception>

00001378 <copr_seg_overrun>:
    1378:	6a ff                	push   $0xffffffff
    137a:	6a 09                	push   $0x9
    137c:	eb 1a                	jmp    1398 <exception>

0000137e <inval_tss>:
    137e:	6a 0a                	push   $0xa
    1380:	eb 16                	jmp    1398 <exception>

00001382 <segment_not_present>:
    1382:	6a 0b                	push   $0xb
    1384:	eb 12                	jmp    1398 <exception>

00001386 <stack_exception>:
    1386:	6a 0c                	push   $0xc
    1388:	eb 0e                	jmp    1398 <exception>

0000138a <general_protection>:
    138a:	6a 0d                	push   $0xd
    138c:	eb 0a                	jmp    1398 <exception>

0000138e <page_fault>:
    138e:	6a 0e                	push   $0xe
    1390:	eb 06                	jmp    1398 <exception>

00001392 <copr_error>:
    1392:	6a ff                	push   $0xffffffff
    1394:	6a 10                	push   $0x10
    1396:	eb 00                	jmp    1398 <exception>

00001398 <exception>:
    1398:	e8 3b 2a 00 00       	call   3dd8 <exception_handler>
    139d:	83 c4 08             	add    $0x8,%esp
    13a0:	f4                   	hlt    

000013a1 <save>:
    13a1:	60                   	pusha  
    13a2:	1e                   	push   %ds
    13a3:	06                   	push   %es
    13a4:	0f a0                	push   %fs
    13a6:	0f a8                	push   %gs
    13a8:	89 d6                	mov    %edx,%esi
    13aa:	66 8c d2             	mov    %ss,%dx
    13ad:	8e da                	mov    %edx,%ds
    13af:	8e c2                	mov    %edx,%es
    13b1:	8e e2                	mov    %edx,%fs
    13b3:	89 f2                	mov    %esi,%edx
    13b5:	89 e6                	mov    %esp,%esi
    13b7:	ff 05 20 84 03 00    	incl   0x38420
    13bd:	83 3d 20 84 03 00 00 	cmpl   $0x0,0x38420
    13c4:	75 0d                	jne    13d3 <save.1>
    13c6:	bc 20 30 01 00       	mov    $0x13020,%esp
    13cb:	68 fb 13 00 00       	push   $0x13fb
    13d0:	ff 66 30             	jmp    *0x30(%esi)

000013d3 <save.1>:
    13d3:	68 0f 14 00 00       	push   $0x140f
    13d8:	ff 66 30             	jmp    *0x30(%esi)

000013db <sys_call>:
    13db:	e8 c1 ff ff ff       	call   13a1 <save>
    13e0:	fb                   	sti    
    13e1:	56                   	push   %esi
    13e2:	ff 35 80 a4 03 00    	pushl  0x3a480
    13e8:	52                   	push   %edx
    13e9:	51                   	push   %ecx
    13ea:	53                   	push   %ebx
    13eb:	ff 14 85 e0 27 01 00 	call   *0x127e0(,%eax,4)
    13f2:	83 c4 10             	add    $0x10,%esp
    13f5:	5e                   	pop    %esi
    13f6:	89 46 2c             	mov    %eax,0x2c(%esi)
    13f9:	fa                   	cli    
    13fa:	c3                   	ret    

000013fb <restart>:
    13fb:	8b 25 80 a4 03 00    	mov    0x3a480,%esp
    1401:	0f 00 54 24 48       	lldt   0x48(%esp)
    1406:	8d 44 24 48          	lea    0x48(%esp),%eax
    140a:	a3 e4 94 03 00       	mov    %eax,0x394e4

0000140f <restart_reenter>:
    140f:	ff 0d 20 84 03 00    	decl   0x38420
    1415:	0f a9                	pop    %gs
    1417:	0f a1                	pop    %fs
    1419:	07                   	pop    %es
    141a:	1f                   	pop    %ds
    141b:	61                   	popa   
    141c:	83 c4 04             	add    $0x4,%esp
    141f:	cf                   	iret   

00001420 <cstart>:
    1420:	55                   	push   %ebp
    1421:	89 e5                	mov    %esp,%ebp
    1423:	83 ec 18             	sub    $0x18,%esp
    1426:	83 ec 0c             	sub    $0xc,%esp
    1429:	68 e0 cb 00 00       	push   $0xcbe0
    142e:	e8 9d 51 00 00       	call   65d0 <disp_str>
    1433:	83 c4 10             	add    $0x10,%esp
    1436:	b8 f4 99 03 00       	mov    $0x399f4,%eax
    143b:	0f b7 00             	movzwl (%eax),%eax
    143e:	0f b7 c0             	movzwl %ax,%eax
    1441:	83 c0 01             	add    $0x1,%eax
    1444:	ba f6 99 03 00       	mov    $0x399f6,%edx
    1449:	8b 12                	mov    (%edx),%edx
    144b:	83 ec 04             	sub    $0x4,%esp
    144e:	50                   	push   %eax
    144f:	52                   	push   %edx
    1450:	68 40 84 03 00       	push   $0x38440
    1455:	e8 f6 af 00 00       	call   c450 <memcpy>
    145a:	83 c4 10             	add    $0x10,%esp
    145d:	c7 45 f4 f4 99 03 00 	movl   $0x399f4,-0xc(%ebp)
    1464:	c7 45 f0 f6 99 03 00 	movl   $0x399f6,-0x10(%ebp)
    146b:	8b 45 f4             	mov    -0xc(%ebp),%eax
    146e:	66 c7 00 ff 03       	movw   $0x3ff,(%eax)
    1473:	ba 40 84 03 00       	mov    $0x38440,%edx
    1478:	8b 45 f0             	mov    -0x10(%ebp),%eax
    147b:	89 10                	mov    %edx,(%eax)
    147d:	c7 45 ec 00 39 01 00 	movl   $0x13900,-0x14(%ebp)
    1484:	c7 45 e8 02 39 01 00 	movl   $0x13902,-0x18(%ebp)
    148b:	8b 45 ec             	mov    -0x14(%ebp),%eax
    148e:	66 c7 00 ff 07       	movw   $0x7ff,(%eax)
    1493:	ba 00 9a 03 00       	mov    $0x39a00,%edx
    1498:	8b 45 e8             	mov    -0x18(%ebp),%eax
    149b:	89 10                	mov    %edx,(%eax)
    149d:	e8 17 24 00 00       	call   38b9 <init_prot>
    14a2:	83 ec 0c             	sub    $0xc,%esp
    14a5:	68 0a cc 00 00       	push   $0xcc0a
    14aa:	e8 21 51 00 00       	call   65d0 <disp_str>
    14af:	83 c4 10             	add    $0x10,%esp
    14b2:	90                   	nop
    14b3:	c9                   	leave  
    14b4:	c3                   	ret    

000014b5 <kernel_main>:
    14b5:	55                   	push   %ebp
    14b6:	89 e5                	mov    %esp,%ebp
    14b8:	83 ec 38             	sub    $0x38,%esp
    14bb:	83 ec 0c             	sub    $0xc,%esp
    14be:	68 28 cc 00 00       	push   $0xcc28
    14c3:	e8 08 51 00 00       	call   65d0 <disp_str>
    14c8:	83 c4 10             	add    $0x10,%esp
    14cb:	c7 45 dc a0 a4 03 00 	movl   $0x3a4a0,-0x24(%ebp)
    14d2:	c7 45 d8 20 84 03 00 	movl   $0x38420,-0x28(%ebp)
    14d9:	c7 45 f4 00 00 00 00 	movl   $0x0,-0xc(%ebp)
    14e0:	e9 b2 02 00 00       	jmp    1797 <kernel_main+0x2e2>
    14e5:	83 7d f4 08          	cmpl   $0x8,-0xc(%ebp)
    14e9:	7e 0f                	jle    14fa <kernel_main+0x45>
    14eb:	8b 45 dc             	mov    -0x24(%ebp),%eax
    14ee:	c7 40 74 20 00 00 00 	movl   $0x20,0x74(%eax)
    14f5:	e9 8e 02 00 00       	jmp    1788 <kernel_main+0x2d3>
    14fa:	83 7d f4 04          	cmpl   $0x4,-0xc(%ebp)
    14fe:	7f 2d                	jg     152d <kernel_main+0x78>
    1500:	8b 55 f4             	mov    -0xc(%ebp),%edx
    1503:	89 d0                	mov    %edx,%eax
    1505:	c1 e0 02             	shl    $0x2,%eax
    1508:	01 d0                	add    %edx,%eax
    150a:	c1 e0 03             	shl    $0x3,%eax
    150d:	05 60 26 01 00       	add    $0x12660,%eax
    1512:	89 45 e0             	mov    %eax,-0x20(%ebp)
    1515:	c6 45 e6 01          	movb   $0x1,-0x1a(%ebp)
    1519:	c6 45 e7 01          	movb   $0x1,-0x19(%ebp)
    151d:	c7 45 ec 02 12 00 00 	movl   $0x1202,-0x14(%ebp)
    1524:	c7 45 e8 0f 00 00 00 	movl   $0xf,-0x18(%ebp)
    152b:	eb 30                	jmp    155d <kernel_main+0xa8>
    152d:	8b 55 f4             	mov    -0xc(%ebp),%edx
    1530:	89 d0                	mov    %edx,%eax
    1532:	c1 e0 02             	shl    $0x2,%eax
    1535:	01 d0                	add    %edx,%eax
    1537:	c1 e0 03             	shl    $0x3,%eax
    153a:	2d c8 00 00 00       	sub    $0xc8,%eax
    153f:	05 40 27 01 00       	add    $0x12740,%eax
    1544:	89 45 e0             	mov    %eax,-0x20(%ebp)
    1547:	c6 45 e6 03          	movb   $0x3,-0x1a(%ebp)
    154b:	c6 45 e7 03          	movb   $0x3,-0x19(%ebp)
    154f:	c7 45 ec 02 02 00 00 	movl   $0x202,-0x14(%ebp)
    1556:	c7 45 e8 05 00 00 00 	movl   $0x5,-0x18(%ebp)
    155d:	8b 45 e0             	mov    -0x20(%ebp),%eax
    1560:	8d 50 08             	lea    0x8(%eax),%edx
    1563:	8b 45 dc             	mov    -0x24(%ebp),%eax
    1566:	83 c0 64             	add    $0x64,%eax
    1569:	83 ec 08             	sub    $0x8,%esp
    156c:	52                   	push   %edx
    156d:	50                   	push   %eax
    156e:	e8 27 af 00 00       	call   c49a <strcpy>
    1573:	83 c4 10             	add    $0x10,%esp
    1576:	8b 45 dc             	mov    -0x24(%ebp),%eax
    1579:	c7 80 90 00 00 00 39 	movl   $0x39,0x90(%eax)
    1580:	00 00 00 
    1583:	8b 45 e0             	mov    -0x20(%ebp),%eax
    1586:	83 c0 08             	add    $0x8,%eax
    1589:	83 ec 08             	sub    $0x8,%esp
    158c:	68 6c cc 00 00       	push   $0xcc6c
    1591:	50                   	push   %eax
    1592:	e8 5d b0 00 00       	call   c5f4 <strcmp>
    1597:	83 c4 10             	add    $0x10,%esp
    159a:	85 c0                	test   %eax,%eax
    159c:	74 51                	je     15ef <kernel_main+0x13a>
    159e:	8b 4d dc             	mov    -0x24(%ebp),%ecx
    15a1:	a1 48 84 03 00       	mov    0x38448,%eax
    15a6:	8b 15 4c 84 03 00    	mov    0x3844c,%edx
    15ac:	89 41 4a             	mov    %eax,0x4a(%ecx)
    15af:	89 51 4e             	mov    %edx,0x4e(%ecx)
    15b2:	8b 4d dc             	mov    -0x24(%ebp),%ecx
    15b5:	a1 50 84 03 00       	mov    0x38450,%eax
    15ba:	8b 15 54 84 03 00    	mov    0x38454,%edx
    15c0:	89 41 52             	mov    %eax,0x52(%ecx)
    15c3:	89 51 56             	mov    %edx,0x56(%ecx)
    15c6:	0f b6 45 e6          	movzbl -0x1a(%ebp),%eax
    15ca:	c1 e0 05             	shl    $0x5,%eax
    15cd:	83 c8 98             	or     $0xffffff98,%eax
    15d0:	89 c2                	mov    %eax,%edx
    15d2:	8b 45 dc             	mov    -0x24(%ebp),%eax
    15d5:	88 50 4f             	mov    %dl,0x4f(%eax)
    15d8:	0f b6 45 e6          	movzbl -0x1a(%ebp),%eax
    15dc:	c1 e0 05             	shl    $0x5,%eax
    15df:	83 c8 92             	or     $0xffffff92,%eax
    15e2:	89 c2                	mov    %eax,%edx
    15e4:	8b 45 dc             	mov    -0x24(%ebp),%eax
    15e7:	88 50 57             	mov    %dl,0x57(%eax)
    15ea:	e9 91 00 00 00       	jmp    1680 <kernel_main+0x1cb>
    15ef:	83 ec 08             	sub    $0x8,%esp
    15f2:	8d 45 cc             	lea    -0x34(%ebp),%eax
    15f5:	50                   	push   %eax
    15f6:	8d 45 d0             	lea    -0x30(%ebp),%eax
    15f9:	50                   	push   %eax
    15fa:	e8 f1 51 00 00       	call   67f0 <get_kernel_map>
    15ff:	83 c4 10             	add    $0x10,%esp
    1602:	89 45 d4             	mov    %eax,-0x2c(%ebp)
    1605:	83 7d d4 00          	cmpl   $0x0,-0x2c(%ebp)
    1609:	74 19                	je     1624 <kernel_main+0x16f>
    160b:	6a 4e                	push   $0x4e
    160d:	68 71 cc 00 00       	push   $0xcc71
    1612:	68 71 cc 00 00       	push   $0xcc71
    1617:	68 7f cc 00 00       	push   $0xcc7f
    161c:	e8 bc b0 00 00       	call   c6dd <assertion_failure>
    1621:	83 c4 10             	add    $0x10,%esp
    1624:	0f b6 45 e6          	movzbl -0x1a(%ebp),%eax
    1628:	c1 e0 05             	shl    $0x5,%eax
    162b:	66 0d 98 c0          	or     $0xc098,%ax
    162f:	0f b7 c0             	movzwl %ax,%eax
    1632:	8b 4d d0             	mov    -0x30(%ebp),%ecx
    1635:	8b 55 cc             	mov    -0x34(%ebp),%edx
    1638:	01 ca                	add    %ecx,%edx
    163a:	89 d1                	mov    %edx,%ecx
    163c:	c1 e9 0c             	shr    $0xc,%ecx
    163f:	8b 55 dc             	mov    -0x24(%ebp),%edx
    1642:	83 c2 4a             	add    $0x4a,%edx
    1645:	50                   	push   %eax
    1646:	51                   	push   %ecx
    1647:	6a 00                	push   $0x0
    1649:	52                   	push   %edx
    164a:	e8 1c 27 00 00       	call   3d6b <init_desc>
    164f:	83 c4 10             	add    $0x10,%esp
    1652:	0f b6 45 e6          	movzbl -0x1a(%ebp),%eax
    1656:	c1 e0 05             	shl    $0x5,%eax
    1659:	66 0d 92 c0          	or     $0xc092,%ax
    165d:	0f b7 c0             	movzwl %ax,%eax
    1660:	8b 4d d0             	mov    -0x30(%ebp),%ecx
    1663:	8b 55 cc             	mov    -0x34(%ebp),%edx
    1666:	01 ca                	add    %ecx,%edx
    1668:	89 d1                	mov    %edx,%ecx
    166a:	c1 e9 0c             	shr    $0xc,%ecx
    166d:	8b 55 dc             	mov    -0x24(%ebp),%edx
    1670:	83 c2 52             	add    $0x52,%edx
    1673:	50                   	push   %eax
    1674:	51                   	push   %ecx
    1675:	6a 00                	push   $0x0
    1677:	52                   	push   %edx
    1678:	e8 ee 26 00 00       	call   3d6b <init_desc>
    167d:	83 c4 10             	add    $0x10,%esp
    1680:	0f b6 45 e7          	movzbl -0x19(%ebp),%eax
    1684:	83 c8 04             	or     $0x4,%eax
    1687:	0f b6 d0             	movzbl %al,%edx
    168a:	8b 45 dc             	mov    -0x24(%ebp),%eax
    168d:	89 50 38             	mov    %edx,0x38(%eax)
    1690:	0f b6 45 e7          	movzbl -0x19(%ebp),%eax
    1694:	83 c8 0c             	or     $0xc,%eax
    1697:	0f b6 d0             	movzbl %al,%edx
    169a:	8b 45 dc             	mov    -0x24(%ebp),%eax
    169d:	89 50 44             	mov    %edx,0x44(%eax)
    16a0:	8b 45 dc             	mov    -0x24(%ebp),%eax
    16a3:	8b 50 44             	mov    0x44(%eax),%edx
    16a6:	8b 45 dc             	mov    -0x24(%ebp),%eax
    16a9:	89 50 04             	mov    %edx,0x4(%eax)
    16ac:	8b 45 dc             	mov    -0x24(%ebp),%eax
    16af:	8b 50 04             	mov    0x4(%eax),%edx
    16b2:	8b 45 dc             	mov    -0x24(%ebp),%eax
    16b5:	89 50 08             	mov    %edx,0x8(%eax)
    16b8:	8b 45 dc             	mov    -0x24(%ebp),%eax
    16bb:	8b 50 08             	mov    0x8(%eax),%edx
    16be:	8b 45 dc             	mov    -0x24(%ebp),%eax
    16c1:	89 50 0c             	mov    %edx,0xc(%eax)
    16c4:	0f b6 45 e7          	movzbl -0x19(%ebp),%eax
    16c8:	83 c8 18             	or     $0x18,%eax
    16cb:	0f b6 d0             	movzbl %al,%edx
    16ce:	8b 45 dc             	mov    -0x24(%ebp),%eax
    16d1:	89 10                	mov    %edx,(%eax)
    16d3:	8b 45 e0             	mov    -0x20(%ebp),%eax
    16d6:	8b 00                	mov    (%eax),%eax
    16d8:	89 c2                	mov    %eax,%edx
    16da:	8b 45 dc             	mov    -0x24(%ebp),%eax
    16dd:	89 50 34             	mov    %edx,0x34(%eax)
    16e0:	8b 55 d8             	mov    -0x28(%ebp),%edx
    16e3:	8b 45 dc             	mov    -0x24(%ebp),%eax
    16e6:	89 50 40             	mov    %edx,0x40(%eax)
    16e9:	8b 55 ec             	mov    -0x14(%ebp),%edx
    16ec:	8b 45 dc             	mov    -0x24(%ebp),%eax
    16ef:	89 50 3c             	mov    %edx,0x3c(%eax)
    16f2:	8b 45 dc             	mov    -0x24(%ebp),%eax
    16f5:	8b 55 e8             	mov    -0x18(%ebp),%edx
    16f8:	89 50 60             	mov    %edx,0x60(%eax)
    16fb:	8b 45 dc             	mov    -0x24(%ebp),%eax
    16fe:	8b 50 60             	mov    0x60(%eax),%edx
    1701:	8b 45 dc             	mov    -0x24(%ebp),%eax
    1704:	89 50 5c             	mov    %edx,0x5c(%eax)
    1707:	8b 45 dc             	mov    -0x24(%ebp),%eax
    170a:	c7 40 74 00 00 00 00 	movl   $0x0,0x74(%eax)
    1711:	8b 45 dc             	mov    -0x24(%ebp),%eax
    1714:	c7 40 78 00 00 00 00 	movl   $0x0,0x78(%eax)
    171b:	8b 45 dc             	mov    -0x24(%ebp),%eax
    171e:	c7 40 7c 39 00 00 00 	movl   $0x39,0x7c(%eax)
    1725:	8b 45 dc             	mov    -0x24(%ebp),%eax
    1728:	c7 80 80 00 00 00 39 	movl   $0x39,0x80(%eax)
    172f:	00 00 00 
    1732:	8b 45 dc             	mov    -0x24(%ebp),%eax
    1735:	c7 80 84 00 00 00 00 	movl   $0x0,0x84(%eax)
    173c:	00 00 00 
    173f:	8b 45 dc             	mov    -0x24(%ebp),%eax
    1742:	c7 80 88 00 00 00 00 	movl   $0x0,0x88(%eax)
    1749:	00 00 00 
    174c:	8b 45 dc             	mov    -0x24(%ebp),%eax
    174f:	c7 80 8c 00 00 00 00 	movl   $0x0,0x8c(%eax)
    1756:	00 00 00 
    1759:	c7 45 f0 00 00 00 00 	movl   $0x0,-0x10(%ebp)
    1760:	eb 15                	jmp    1777 <kernel_main+0x2c2>
    1762:	8b 45 dc             	mov    -0x24(%ebp),%eax
    1765:	8b 55 f0             	mov    -0x10(%ebp),%edx
    1768:	83 c2 24             	add    $0x24,%edx
    176b:	c7 44 90 08 00 00 00 	movl   $0x0,0x8(%eax,%edx,4)
    1772:	00 
    1773:	83 45 f0 01          	addl   $0x1,-0x10(%ebp)
    1777:	83 7d f0 3f          	cmpl   $0x3f,-0x10(%ebp)
    177b:	7e e5                	jle    1762 <kernel_main+0x2ad>
    177d:	8b 45 e0             	mov    -0x20(%ebp),%eax
    1780:	8b 40 04             	mov    0x4(%eax),%eax
    1783:	f7 d8                	neg    %eax
    1785:	01 45 d8             	add    %eax,-0x28(%ebp)
    1788:	83 45 f4 01          	addl   $0x1,-0xc(%ebp)
    178c:	81 45 dc 98 01 00 00 	addl   $0x198,-0x24(%ebp)
    1793:	83 45 e0 28          	addl   $0x28,-0x20(%ebp)
    1797:	83 7d f4 24          	cmpl   $0x24,-0xc(%ebp)
    179b:	0f 8e 44 fd ff ff    	jle    14e5 <kernel_main+0x30>
    17a1:	c7 05 20 84 03 00 00 	movl   $0x0,0x38420
    17a8:	00 00 00 
    17ab:	c7 05 e0 a3 03 00 00 	movl   $0x0,0x3a3e0
    17b2:	00 00 00 
    17b5:	c7 05 80 a4 03 00 a0 	movl   $0x3a4a0,0x3a480
    17bc:	a4 03 00 
    17bf:	e8 70 06 00 00       	call   1e34 <init_clock>
    17c4:	e8 2d 07 00 00       	call   1ef6 <init_keyboard>
    17c9:	e8 2d fc ff ff       	call   13fb <restart>
    17ce:	eb fe                	jmp    17ce <kernel_main+0x319>

000017d0 <get_ticks>:
    17d0:	55                   	push   %ebp
    17d1:	89 e5                	mov    %esp,%ebp
    17d3:	83 ec 38             	sub    $0x38,%esp
    17d6:	83 ec 0c             	sub    $0xc,%esp
    17d9:	8d 45 c8             	lea    -0x38(%ebp),%eax
    17dc:	50                   	push   %eax
    17dd:	e8 86 29 00 00       	call   4168 <reset_msg>
    17e2:	83 c4 10             	add    $0x10,%esp
    17e5:	c7 45 cc 02 00 00 00 	movl   $0x2,-0x34(%ebp)
    17ec:	83 ec 04             	sub    $0x4,%esp
    17ef:	8d 45 c8             	lea    -0x38(%ebp),%eax
    17f2:	50                   	push   %eax
    17f3:	6a 01                	push   $0x1
    17f5:	6a 03                	push   $0x3
    17f7:	e8 cc ac 00 00       	call   c4c8 <send_recv>
    17fc:	83 c4 10             	add    $0x10,%esp
    17ff:	8b 45 d0             	mov    -0x30(%ebp),%eax
    1802:	c9                   	leave  
    1803:	c3                   	ret    

00001804 <untar>:
    1804:	55                   	push   %ebp
    1805:	89 e5                	mov    %esp,%ebp
    1807:	81 ec 28 20 00 00    	sub    $0x2028,%esp
    180d:	83 ec 08             	sub    $0x8,%esp
    1810:	ff 75 08             	pushl  0x8(%ebp)
    1813:	68 88 cc 00 00       	push   $0xcc88
    1818:	e8 7d a8 00 00       	call   c09a <printf>
    181d:	83 c4 10             	add    $0x10,%esp
    1820:	83 ec 08             	sub    $0x8,%esp
    1823:	6a 02                	push   $0x2
    1825:	ff 75 08             	pushl  0x8(%ebp)
    1828:	e8 e9 ae 00 00       	call   c716 <open>
    182d:	83 c4 10             	add    $0x10,%esp
    1830:	89 45 e8             	mov    %eax,-0x18(%ebp)
    1833:	83 7d e8 ff          	cmpl   $0xffffffff,-0x18(%ebp)
    1837:	75 1c                	jne    1855 <untar+0x51>
    1839:	68 ba 00 00 00       	push   $0xba
    183e:	68 71 cc 00 00       	push   $0xcc71
    1843:	68 71 cc 00 00       	push   $0xcc71
    1848:	68 97 cc 00 00       	push   $0xcc97
    184d:	e8 8b ae 00 00       	call   c6dd <assertion_failure>
    1852:	83 c4 10             	add    $0x10,%esp
    1855:	c7 45 e4 00 20 00 00 	movl   $0x2000,-0x1c(%ebp)
    185c:	83 ec 04             	sub    $0x4,%esp
    185f:	68 00 02 00 00       	push   $0x200
    1864:	8d 85 d8 df ff ff    	lea    -0x2028(%ebp),%eax
    186a:	50                   	push   %eax
    186b:	ff 75 e8             	pushl  -0x18(%ebp)
    186e:	e8 06 af 00 00       	call   c779 <read>
    1873:	83 c4 10             	add    $0x10,%esp
    1876:	0f b6 85 d8 df ff ff 	movzbl -0x2028(%ebp),%eax
    187d:	84 c0                	test   %al,%al
    187f:	0f 84 1c 01 00 00    	je     19a1 <untar+0x19d>
    1885:	8d 85 d8 df ff ff    	lea    -0x2028(%ebp),%eax
    188b:	89 45 e0             	mov    %eax,-0x20(%ebp)
    188e:	8b 45 e0             	mov    -0x20(%ebp),%eax
    1891:	83 c0 7c             	add    $0x7c,%eax
    1894:	89 45 f4             	mov    %eax,-0xc(%ebp)
    1897:	c7 45 f0 00 00 00 00 	movl   $0x0,-0x10(%ebp)
    189e:	eb 21                	jmp    18c1 <untar+0xbd>
    18a0:	8b 45 f0             	mov    -0x10(%ebp),%eax
    18a3:	8d 0c c5 00 00 00 00 	lea    0x0(,%eax,8),%ecx
    18aa:	8b 45 f4             	mov    -0xc(%ebp),%eax
    18ad:	8d 50 01             	lea    0x1(%eax),%edx
    18b0:	89 55 f4             	mov    %edx,-0xc(%ebp)
    18b3:	0f b6 00             	movzbl (%eax),%eax
    18b6:	0f be c0             	movsbl %al,%eax
    18b9:	83 e8 30             	sub    $0x30,%eax
    18bc:	01 c8                	add    %ecx,%eax
    18be:	89 45 f0             	mov    %eax,-0x10(%ebp)
    18c1:	8b 45 f4             	mov    -0xc(%ebp),%eax
    18c4:	0f b6 00             	movzbl (%eax),%eax
    18c7:	84 c0                	test   %al,%al
    18c9:	75 d5                	jne    18a0 <untar+0x9c>
    18cb:	8b 45 f0             	mov    -0x10(%ebp),%eax
    18ce:	89 45 ec             	mov    %eax,-0x14(%ebp)
    18d1:	8b 45 e0             	mov    -0x20(%ebp),%eax
    18d4:	83 ec 08             	sub    $0x8,%esp
    18d7:	6a 03                	push   $0x3
    18d9:	50                   	push   %eax
    18da:	e8 37 ae 00 00       	call   c716 <open>
    18df:	83 c4 10             	add    $0x10,%esp
    18e2:	89 45 dc             	mov    %eax,-0x24(%ebp)
    18e5:	83 7d dc ff          	cmpl   $0xffffffff,-0x24(%ebp)
    18e9:	75 29                	jne    1914 <untar+0x110>
    18eb:	8b 45 e0             	mov    -0x20(%ebp),%eax
    18ee:	83 ec 08             	sub    $0x8,%esp
    18f1:	50                   	push   %eax
    18f2:	68 a0 cc 00 00       	push   $0xcca0
    18f7:	e8 9e a7 00 00       	call   c09a <printf>
    18fc:	83 c4 10             	add    $0x10,%esp
    18ff:	83 ec 0c             	sub    $0xc,%esp
    1902:	68 c0 cc 00 00       	push   $0xccc0
    1907:	e8 8e a7 00 00       	call   c09a <printf>
    190c:	83 c4 10             	add    $0x10,%esp
    190f:	e9 ac 00 00 00       	jmp    19c0 <untar+0x1bc>
    1914:	8b 45 e0             	mov    -0x20(%ebp),%eax
    1917:	83 ec 04             	sub    $0x4,%esp
    191a:	ff 75 f0             	pushl  -0x10(%ebp)
    191d:	50                   	push   %eax
    191e:	68 ca cc 00 00       	push   $0xccca
    1923:	e8 72 a7 00 00       	call   c09a <printf>
    1928:	83 c4 10             	add    $0x10,%esp
    192b:	eb 5b                	jmp    1988 <untar+0x184>
    192d:	8b 45 e4             	mov    -0x1c(%ebp),%eax
    1930:	39 45 ec             	cmp    %eax,-0x14(%ebp)
    1933:	0f 4e 45 ec          	cmovle -0x14(%ebp),%eax
    1937:	89 45 d8             	mov    %eax,-0x28(%ebp)
    193a:	8b 45 d8             	mov    -0x28(%ebp),%eax
    193d:	83 e8 01             	sub    $0x1,%eax
    1940:	8d 90 ff 01 00 00    	lea    0x1ff(%eax),%edx
    1946:	85 c0                	test   %eax,%eax
    1948:	0f 48 c2             	cmovs  %edx,%eax
    194b:	c1 f8 09             	sar    $0x9,%eax
    194e:	83 c0 01             	add    $0x1,%eax
    1951:	c1 e0 09             	shl    $0x9,%eax
    1954:	83 ec 04             	sub    $0x4,%esp
    1957:	50                   	push   %eax
    1958:	8d 85 d8 df ff ff    	lea    -0x2028(%ebp),%eax
    195e:	50                   	push   %eax
    195f:	ff 75 e8             	pushl  -0x18(%ebp)
    1962:	e8 12 ae 00 00       	call   c779 <read>
    1967:	83 c4 10             	add    $0x10,%esp
    196a:	83 ec 04             	sub    $0x4,%esp
    196d:	ff 75 d8             	pushl  -0x28(%ebp)
    1970:	8d 85 d8 df ff ff    	lea    -0x2028(%ebp),%eax
    1976:	50                   	push   %eax
    1977:	ff 75 dc             	pushl  -0x24(%ebp)
    197a:	e8 31 ae 00 00       	call   c7b0 <write>
    197f:	83 c4 10             	add    $0x10,%esp
    1982:	8b 45 d8             	mov    -0x28(%ebp),%eax
    1985:	29 45 ec             	sub    %eax,-0x14(%ebp)
    1988:	83 7d ec 00          	cmpl   $0x0,-0x14(%ebp)
    198c:	75 9f                	jne    192d <untar+0x129>
    198e:	83 ec 0c             	sub    $0xc,%esp
    1991:	ff 75 dc             	pushl  -0x24(%ebp)
    1994:	e8 4e ae 00 00       	call   c7e7 <close>
    1999:	83 c4 10             	add    $0x10,%esp
    199c:	e9 bb fe ff ff       	jmp    185c <untar+0x58>
    19a1:	90                   	nop
    19a2:	83 ec 0c             	sub    $0xc,%esp
    19a5:	ff 75 e8             	pushl  -0x18(%ebp)
    19a8:	e8 3a ae 00 00       	call   c7e7 <close>
    19ad:	83 c4 10             	add    $0x10,%esp
    19b0:	83 ec 0c             	sub    $0xc,%esp
    19b3:	68 dd cc 00 00       	push   $0xccdd
    19b8:	e8 dd a6 00 00       	call   c09a <printf>
    19bd:	83 c4 10             	add    $0x10,%esp
    19c0:	c9                   	leave  
    19c1:	c3                   	ret    

000019c2 <shabby_shell>:
    19c2:	55                   	push   %ebp
    19c3:	89 e5                	mov    %esp,%ebp
    19c5:	81 ec b8 10 00 00    	sub    $0x10b8,%esp
    19cb:	83 ec 08             	sub    $0x8,%esp
    19ce:	6a 02                	push   $0x2
    19d0:	ff 75 08             	pushl  0x8(%ebp)
    19d3:	e8 3e ad 00 00       	call   c716 <open>
    19d8:	83 c4 10             	add    $0x10,%esp
    19db:	89 45 e4             	mov    %eax,-0x1c(%ebp)
    19de:	83 7d e4 00          	cmpl   $0x0,-0x1c(%ebp)
    19e2:	74 1c                	je     1a00 <shabby_shell+0x3e>
    19e4:	68 00 01 00 00       	push   $0x100
    19e9:	68 71 cc 00 00       	push   $0xcc71
    19ee:	68 71 cc 00 00       	push   $0xcc71
    19f3:	68 e5 cc 00 00       	push   $0xcce5
    19f8:	e8 e0 ac 00 00       	call   c6dd <assertion_failure>
    19fd:	83 c4 10             	add    $0x10,%esp
    1a00:	83 ec 08             	sub    $0x8,%esp
    1a03:	6a 02                	push   $0x2
    1a05:	ff 75 08             	pushl  0x8(%ebp)
    1a08:	e8 09 ad 00 00       	call   c716 <open>
    1a0d:	83 c4 10             	add    $0x10,%esp
    1a10:	89 45 e0             	mov    %eax,-0x20(%ebp)
    1a13:	83 7d e0 01          	cmpl   $0x1,-0x20(%ebp)
    1a17:	74 1c                	je     1a35 <shabby_shell+0x73>
    1a19:	68 02 01 00 00       	push   $0x102
    1a1e:	68 71 cc 00 00       	push   $0xcc71
    1a23:	68 71 cc 00 00       	push   $0xcc71
    1a28:	68 f3 cc 00 00       	push   $0xccf3
    1a2d:	e8 ab ac 00 00       	call   c6dd <assertion_failure>
    1a32:	83 c4 10             	add    $0x10,%esp
    1a35:	83 ec 04             	sub    $0x4,%esp
    1a38:	6a 02                	push   $0x2
    1a3a:	68 02 cd 00 00       	push   $0xcd02
    1a3f:	6a 01                	push   $0x1
    1a41:	e8 6a ad 00 00       	call   c7b0 <write>
    1a46:	83 c4 10             	add    $0x10,%esp
    1a49:	83 ec 04             	sub    $0x4,%esp
    1a4c:	6a 46                	push   $0x46
    1a4e:	8d 85 50 ff ff ff    	lea    -0xb0(%ebp),%eax
    1a54:	50                   	push   %eax
    1a55:	6a 00                	push   $0x0
    1a57:	e8 1d ad 00 00       	call   c779 <read>
    1a5c:	83 c4 10             	add    $0x10,%esp
    1a5f:	89 45 dc             	mov    %eax,-0x24(%ebp)
    1a62:	8d 95 50 ff ff ff    	lea    -0xb0(%ebp),%edx
    1a68:	8b 45 dc             	mov    -0x24(%ebp),%eax
    1a6b:	01 d0                	add    %edx,%eax
    1a6d:	c6 00 00             	movb   $0x0,(%eax)
    1a70:	c7 45 f4 00 00 00 00 	movl   $0x0,-0xc(%ebp)
    1a77:	8d 85 50 ff ff ff    	lea    -0xb0(%ebp),%eax
    1a7d:	89 45 f0             	mov    %eax,-0x10(%ebp)
    1a80:	c7 45 e8 00 00 00 00 	movl   $0x0,-0x18(%ebp)
    1a87:	8b 45 f0             	mov    -0x10(%ebp),%eax
    1a8a:	0f b6 00             	movzbl (%eax),%eax
    1a8d:	88 45 db             	mov    %al,-0x25(%ebp)
    1a90:	8b 45 f0             	mov    -0x10(%ebp),%eax
    1a93:	0f b6 00             	movzbl (%eax),%eax
    1a96:	3c 20                	cmp    $0x20,%al
    1a98:	74 1d                	je     1ab7 <shabby_shell+0xf5>
    1a9a:	8b 45 f0             	mov    -0x10(%ebp),%eax
    1a9d:	0f b6 00             	movzbl (%eax),%eax
    1aa0:	84 c0                	test   %al,%al
    1aa2:	74 13                	je     1ab7 <shabby_shell+0xf5>
    1aa4:	83 7d e8 00          	cmpl   $0x0,-0x18(%ebp)
    1aa8:	75 0d                	jne    1ab7 <shabby_shell+0xf5>
    1aaa:	8b 45 f0             	mov    -0x10(%ebp),%eax
    1aad:	89 45 ec             	mov    %eax,-0x14(%ebp)
    1ab0:	c7 45 e8 01 00 00 00 	movl   $0x1,-0x18(%ebp)
    1ab7:	8b 45 f0             	mov    -0x10(%ebp),%eax
    1aba:	0f b6 00             	movzbl (%eax),%eax
    1abd:	3c 20                	cmp    $0x20,%al
    1abf:	74 0a                	je     1acb <shabby_shell+0x109>
    1ac1:	8b 45 f0             	mov    -0x10(%ebp),%eax
    1ac4:	0f b6 00             	movzbl (%eax),%eax
    1ac7:	84 c0                	test   %al,%al
    1ac9:	75 26                	jne    1af1 <shabby_shell+0x12f>
    1acb:	83 7d e8 00          	cmpl   $0x0,-0x18(%ebp)
    1acf:	74 20                	je     1af1 <shabby_shell+0x12f>
    1ad1:	c7 45 e8 00 00 00 00 	movl   $0x0,-0x18(%ebp)
    1ad8:	8b 45 f4             	mov    -0xc(%ebp),%eax
    1adb:	8d 50 01             	lea    0x1(%eax),%edx
    1ade:	89 55 f4             	mov    %edx,-0xc(%ebp)
    1ae1:	8b 55 ec             	mov    -0x14(%ebp),%edx
    1ae4:	89 94 85 4c ef ff ff 	mov    %edx,-0x10b4(%ebp,%eax,4)
    1aeb:	8b 45 f0             	mov    -0x10(%ebp),%eax
    1aee:	c6 00 00             	movb   $0x0,(%eax)
    1af1:	83 45 f0 01          	addl   $0x1,-0x10(%ebp)
    1af5:	80 7d db 00          	cmpb   $0x0,-0x25(%ebp)
    1af9:	75 8c                	jne    1a87 <shabby_shell+0xc5>
    1afb:	8b 45 f4             	mov    -0xc(%ebp),%eax
    1afe:	c7 84 85 4c ef ff ff 	movl   $0x0,-0x10b4(%ebp,%eax,4)
    1b05:	00 00 00 00 
    1b09:	8b 85 4c ef ff ff    	mov    -0x10b4(%ebp),%eax
    1b0f:	83 ec 08             	sub    $0x8,%esp
    1b12:	6a 02                	push   $0x2
    1b14:	50                   	push   %eax
    1b15:	e8 fc ab 00 00       	call   c716 <open>
    1b1a:	83 c4 10             	add    $0x10,%esp
    1b1d:	89 45 d4             	mov    %eax,-0x2c(%ebp)
    1b20:	83 7d d4 ff          	cmpl   $0xffffffff,-0x2c(%ebp)
    1b24:	75 53                	jne    1b79 <shabby_shell+0x1b7>
    1b26:	0f b6 85 50 ff ff ff 	movzbl -0xb0(%ebp),%eax
    1b2d:	84 c0                	test   %al,%al
    1b2f:	0f 84 00 ff ff ff    	je     1a35 <shabby_shell+0x73>
    1b35:	83 ec 04             	sub    $0x4,%esp
    1b38:	6a 01                	push   $0x1
    1b3a:	68 05 cd 00 00       	push   $0xcd05
    1b3f:	6a 01                	push   $0x1
    1b41:	e8 6a ac 00 00       	call   c7b0 <write>
    1b46:	83 c4 10             	add    $0x10,%esp
    1b49:	83 ec 04             	sub    $0x4,%esp
    1b4c:	ff 75 dc             	pushl  -0x24(%ebp)
    1b4f:	8d 85 50 ff ff ff    	lea    -0xb0(%ebp),%eax
    1b55:	50                   	push   %eax
    1b56:	6a 01                	push   $0x1
    1b58:	e8 53 ac 00 00       	call   c7b0 <write>
    1b5d:	83 c4 10             	add    $0x10,%esp
    1b60:	83 ec 04             	sub    $0x4,%esp
    1b63:	6a 02                	push   $0x2
    1b65:	68 07 cd 00 00       	push   $0xcd07
    1b6a:	6a 01                	push   $0x1
    1b6c:	e8 3f ac 00 00       	call   c7b0 <write>
    1b71:	83 c4 10             	add    $0x10,%esp
    1b74:	e9 bc fe ff ff       	jmp    1a35 <shabby_shell+0x73>
    1b79:	83 ec 0c             	sub    $0xc,%esp
    1b7c:	ff 75 d4             	pushl  -0x2c(%ebp)
    1b7f:	e8 63 ac 00 00       	call   c7e7 <close>
    1b84:	83 c4 10             	add    $0x10,%esp
    1b87:	e8 2f ad 00 00       	call   c8bb <fork>
    1b8c:	89 45 d0             	mov    %eax,-0x30(%ebp)
    1b8f:	83 7d d0 00          	cmpl   $0x0,-0x30(%ebp)
    1b93:	74 17                	je     1bac <shabby_shell+0x1ea>
    1b95:	83 ec 0c             	sub    $0xc,%esp
    1b98:	8d 85 4c ff ff ff    	lea    -0xb4(%ebp),%eax
    1b9e:	50                   	push   %eax
    1b9f:	e8 7d ad 00 00       	call   c921 <wait>
    1ba4:	83 c4 10             	add    $0x10,%esp
    1ba7:	e9 89 fe ff ff       	jmp    1a35 <shabby_shell+0x73>
    1bac:	8b 85 4c ef ff ff    	mov    -0x10b4(%ebp),%eax
    1bb2:	83 ec 08             	sub    $0x8,%esp
    1bb5:	8d 95 4c ef ff ff    	lea    -0x10b4(%ebp),%edx
    1bbb:	52                   	push   %edx
    1bbc:	50                   	push   %eax
    1bbd:	e8 2b ae 00 00       	call   c9ed <execv>
    1bc2:	83 c4 10             	add    $0x10,%esp
    1bc5:	e9 6b fe ff ff       	jmp    1a35 <shabby_shell+0x73>

00001bca <Init>:
    1bca:	55                   	push   %ebp
    1bcb:	89 e5                	mov    %esp,%ebp
    1bcd:	83 ec 28             	sub    $0x28,%esp
    1bd0:	83 ec 08             	sub    $0x8,%esp
    1bd3:	6a 02                	push   $0x2
    1bd5:	68 0a cd 00 00       	push   $0xcd0a
    1bda:	e8 37 ab 00 00       	call   c716 <open>
    1bdf:	83 c4 10             	add    $0x10,%esp
    1be2:	89 45 f0             	mov    %eax,-0x10(%ebp)
    1be5:	83 7d f0 00          	cmpl   $0x0,-0x10(%ebp)
    1be9:	74 1c                	je     1c07 <Init+0x3d>
    1beb:	68 44 01 00 00       	push   $0x144
    1bf0:	68 71 cc 00 00       	push   $0xcc71
    1bf5:	68 71 cc 00 00       	push   $0xcc71
    1bfa:	68 e5 cc 00 00       	push   $0xcce5
    1bff:	e8 d9 aa 00 00       	call   c6dd <assertion_failure>
    1c04:	83 c4 10             	add    $0x10,%esp
    1c07:	83 ec 08             	sub    $0x8,%esp
    1c0a:	6a 02                	push   $0x2
    1c0c:	68 0a cd 00 00       	push   $0xcd0a
    1c11:	e8 00 ab 00 00       	call   c716 <open>
    1c16:	83 c4 10             	add    $0x10,%esp
    1c19:	89 45 ec             	mov    %eax,-0x14(%ebp)
    1c1c:	83 7d ec 01          	cmpl   $0x1,-0x14(%ebp)
    1c20:	74 1c                	je     1c3e <Init+0x74>
    1c22:	68 46 01 00 00       	push   $0x146
    1c27:	68 71 cc 00 00       	push   $0xcc71
    1c2c:	68 71 cc 00 00       	push   $0xcc71
    1c31:	68 f3 cc 00 00       	push   $0xccf3
    1c36:	e8 a2 aa 00 00       	call   c6dd <assertion_failure>
    1c3b:	83 c4 10             	add    $0x10,%esp
    1c3e:	83 ec 0c             	sub    $0xc,%esp
    1c41:	68 14 cd 00 00       	push   $0xcd14
    1c46:	e8 4f a4 00 00       	call   c09a <printf>
    1c4b:	83 c4 10             	add    $0x10,%esp
    1c4e:	83 ec 0c             	sub    $0xc,%esp
    1c51:	68 2b cd 00 00       	push   $0xcd2b
    1c56:	e8 a9 fb ff ff       	call   1804 <untar>
    1c5b:	83 c4 10             	add    $0x10,%esp
    1c5e:	c7 45 dc 34 cd 00 00 	movl   $0xcd34,-0x24(%ebp)
    1c65:	c7 45 e0 3e cd 00 00 	movl   $0xcd3e,-0x20(%ebp)
    1c6c:	c7 45 f4 00 00 00 00 	movl   $0x0,-0xc(%ebp)
    1c73:	e9 88 00 00 00       	jmp    1d00 <Init+0x136>
    1c78:	e8 3e ac 00 00       	call   c8bb <fork>
    1c7d:	89 45 e8             	mov    %eax,-0x18(%ebp)
    1c80:	83 7d e8 00          	cmpl   $0x0,-0x18(%ebp)
    1c84:	74 15                	je     1c9b <Init+0xd1>
    1c86:	83 ec 08             	sub    $0x8,%esp
    1c89:	ff 75 e8             	pushl  -0x18(%ebp)
    1c8c:	68 48 cd 00 00       	push   $0xcd48
    1c91:	e8 04 a4 00 00       	call   c09a <printf>
    1c96:	83 c4 10             	add    $0x10,%esp
    1c99:	eb 61                	jmp    1cfc <Init+0x132>
    1c9b:	e8 72 ab 00 00       	call   c812 <getpid>
    1ca0:	83 ec 08             	sub    $0x8,%esp
    1ca3:	50                   	push   %eax
    1ca4:	68 6b cd 00 00       	push   $0xcd6b
    1ca9:	e8 ec a3 00 00       	call   c09a <printf>
    1cae:	83 c4 10             	add    $0x10,%esp
    1cb1:	83 ec 0c             	sub    $0xc,%esp
    1cb4:	ff 75 f0             	pushl  -0x10(%ebp)
    1cb7:	e8 2b ab 00 00       	call   c7e7 <close>
    1cbc:	83 c4 10             	add    $0x10,%esp
    1cbf:	83 ec 0c             	sub    $0xc,%esp
    1cc2:	ff 75 ec             	pushl  -0x14(%ebp)
    1cc5:	e8 1d ab 00 00       	call   c7e7 <close>
    1cca:	83 c4 10             	add    $0x10,%esp
    1ccd:	8b 45 f4             	mov    -0xc(%ebp),%eax
    1cd0:	8b 44 85 dc          	mov    -0x24(%ebp,%eax,4),%eax
    1cd4:	83 ec 0c             	sub    $0xc,%esp
    1cd7:	50                   	push   %eax
    1cd8:	e8 e5 fc ff ff       	call   19c2 <shabby_shell>
    1cdd:	83 c4 10             	add    $0x10,%esp
    1ce0:	68 62 01 00 00       	push   $0x162
    1ce5:	68 71 cc 00 00       	push   $0xcc71
    1cea:	68 71 cc 00 00       	push   $0xcc71
    1cef:	68 87 cd 00 00       	push   $0xcd87
    1cf4:	e8 e4 a9 00 00       	call   c6dd <assertion_failure>
    1cf9:	83 c4 10             	add    $0x10,%esp
    1cfc:	83 45 f4 01          	addl   $0x1,-0xc(%ebp)
    1d00:	8b 45 f4             	mov    -0xc(%ebp),%eax
    1d03:	83 f8 01             	cmp    $0x1,%eax
    1d06:	0f 86 6c ff ff ff    	jbe    1c78 <Init+0xae>
    1d0c:	83 ec 0c             	sub    $0xc,%esp
    1d0f:	8d 45 d8             	lea    -0x28(%ebp),%eax
    1d12:	50                   	push   %eax
    1d13:	e8 09 ac 00 00       	call   c921 <wait>
    1d18:	83 c4 10             	add    $0x10,%esp
    1d1b:	89 45 e4             	mov    %eax,-0x1c(%ebp)
    1d1e:	8b 45 d8             	mov    -0x28(%ebp),%eax
    1d21:	83 ec 04             	sub    $0x4,%esp
    1d24:	50                   	push   %eax
    1d25:	ff 75 e4             	pushl  -0x1c(%ebp)
    1d28:	68 8c cd 00 00       	push   $0xcd8c
    1d2d:	e8 68 a3 00 00       	call   c09a <printf>
    1d32:	83 c4 10             	add    $0x10,%esp
    1d35:	eb d5                	jmp    1d0c <Init+0x142>

00001d37 <TestA>:
    1d37:	55                   	push   %ebp
    1d38:	89 e5                	mov    %esp,%ebp
    1d3a:	eb fe                	jmp    1d3a <TestA+0x3>

00001d3c <TestB>:
    1d3c:	55                   	push   %ebp
    1d3d:	89 e5                	mov    %esp,%ebp
    1d3f:	eb fe                	jmp    1d3f <TestB+0x3>

00001d41 <TestC>:
    1d41:	55                   	push   %ebp
    1d42:	89 e5                	mov    %esp,%ebp
    1d44:	eb fe                	jmp    1d44 <TestC+0x3>

00001d46 <panic>:
    1d46:	55                   	push   %ebp
    1d47:	89 e5                	mov    %esp,%ebp
    1d49:	81 ec 18 01 00 00    	sub    $0x118,%esp
    1d4f:	8d 45 0c             	lea    0xc(%ebp),%eax
    1d52:	89 45 f4             	mov    %eax,-0xc(%ebp)
    1d55:	8b 45 08             	mov    0x8(%ebp),%eax
    1d58:	83 ec 04             	sub    $0x4,%esp
    1d5b:	ff 75 f4             	pushl  -0xc(%ebp)
    1d5e:	50                   	push   %eax
    1d5f:	8d 85 f0 fe ff ff    	lea    -0x110(%ebp),%eax
    1d65:	50                   	push   %eax
    1d66:	e8 42 a4 00 00       	call   c1ad <vsprintf>
    1d6b:	83 c4 10             	add    $0x10,%esp
    1d6e:	89 45 f0             	mov    %eax,-0x10(%ebp)
    1d71:	83 ec 04             	sub    $0x4,%esp
    1d74:	8d 85 f0 fe ff ff    	lea    -0x110(%ebp),%eax
    1d7a:	50                   	push   %eax
    1d7b:	6a 02                	push   $0x2
    1d7d:	68 b0 cd 00 00       	push   $0xcdb0
    1d82:	e8 7e a3 00 00       	call   c105 <printl>
    1d87:	83 c4 10             	add    $0x10,%esp
    1d8a:	0f 0b                	ud2    
    1d8c:	90                   	nop
    1d8d:	c9                   	leave  
    1d8e:	c3                   	ret    

00001d8f <clock_handler>:
    1d8f:	55                   	push   %ebp
    1d90:	89 e5                	mov    %esp,%ebp
    1d92:	83 ec 08             	sub    $0x8,%esp
    1d95:	a1 e0 a3 03 00       	mov    0x3a3e0,%eax
    1d9a:	83 c0 01             	add    $0x1,%eax
    1d9d:	a3 e0 a3 03 00       	mov    %eax,0x3a3e0
    1da2:	a1 e0 a3 03 00       	mov    0x3a3e0,%eax
    1da7:	3d cc ab ff 7f       	cmp    $0x7fffabcc,%eax
    1dac:	7e 0a                	jle    1db8 <clock_handler+0x29>
    1dae:	c7 05 e0 a3 03 00 00 	movl   $0x0,0x3a3e0
    1db5:	00 00 00 
    1db8:	a1 80 a4 03 00       	mov    0x3a480,%eax
    1dbd:	8b 40 5c             	mov    0x5c(%eax),%eax
    1dc0:	85 c0                	test   %eax,%eax
    1dc2:	74 0e                	je     1dd2 <clock_handler+0x43>
    1dc4:	a1 80 a4 03 00       	mov    0x3a480,%eax
    1dc9:	8b 50 5c             	mov    0x5c(%eax),%edx
    1dcc:	83 ea 01             	sub    $0x1,%edx
    1dcf:	89 50 5c             	mov    %edx,0x5c(%eax)
    1dd2:	a1 f0 99 03 00       	mov    0x399f0,%eax
    1dd7:	85 c0                	test   %eax,%eax
    1dd9:	74 0d                	je     1de8 <clock_handler+0x59>
    1ddb:	83 ec 0c             	sub    $0xc,%esp
    1dde:	6a 00                	push   $0x0
    1de0:	e8 55 31 00 00       	call   4f3a <inform_int>
    1de5:	83 c4 10             	add    $0x10,%esp
    1de8:	a1 20 84 03 00       	mov    0x38420,%eax
    1ded:	85 c0                	test   %eax,%eax
    1def:	75 13                	jne    1e04 <clock_handler+0x75>
    1df1:	a1 80 a4 03 00       	mov    0x3a480,%eax
    1df6:	8b 40 5c             	mov    0x5c(%eax),%eax
    1df9:	85 c0                	test   %eax,%eax
    1dfb:	7f 0a                	jg     1e07 <clock_handler+0x78>
    1dfd:	e8 11 21 00 00       	call   3f13 <schedule>
    1e02:	eb 04                	jmp    1e08 <clock_handler+0x79>
    1e04:	90                   	nop
    1e05:	eb 01                	jmp    1e08 <clock_handler+0x79>
    1e07:	90                   	nop
    1e08:	c9                   	leave  
    1e09:	c3                   	ret    

00001e0a <milli_delay>:
    1e0a:	55                   	push   %ebp
    1e0b:	89 e5                	mov    %esp,%ebp
    1e0d:	83 ec 18             	sub    $0x18,%esp
    1e10:	e8 bb f9 ff ff       	call   17d0 <get_ticks>
    1e15:	89 45 f4             	mov    %eax,-0xc(%ebp)
    1e18:	90                   	nop
    1e19:	e8 b2 f9 ff ff       	call   17d0 <get_ticks>
    1e1e:	2b 45 f4             	sub    -0xc(%ebp),%eax
    1e21:	89 c2                	mov    %eax,%edx
    1e23:	89 d0                	mov    %edx,%eax
    1e25:	c1 e0 02             	shl    $0x2,%eax
    1e28:	01 d0                	add    %edx,%eax
    1e2a:	01 c0                	add    %eax,%eax
    1e2c:	39 45 08             	cmp    %eax,0x8(%ebp)
    1e2f:	7f e8                	jg     1e19 <milli_delay+0xf>
    1e31:	90                   	nop
    1e32:	c9                   	leave  
    1e33:	c3                   	ret    

00001e34 <init_clock>:
    1e34:	55                   	push   %ebp
    1e35:	89 e5                	mov    %esp,%ebp
    1e37:	83 ec 08             	sub    $0x8,%esp
    1e3a:	83 ec 08             	sub    $0x8,%esp
    1e3d:	6a 34                	push   $0x34
    1e3f:	6a 43                	push   $0x43
    1e41:	e8 07 48 00 00       	call   664d <out_byte>
    1e46:	83 c4 10             	add    $0x10,%esp
    1e49:	83 ec 08             	sub    $0x8,%esp
    1e4c:	68 9b 00 00 00       	push   $0x9b
    1e51:	6a 40                	push   $0x40
    1e53:	e8 f5 47 00 00       	call   664d <out_byte>
    1e58:	83 c4 10             	add    $0x10,%esp
    1e5b:	83 ec 08             	sub    $0x8,%esp
    1e5e:	6a 2e                	push   $0x2e
    1e60:	6a 40                	push   $0x40
    1e62:	e8 e6 47 00 00       	call   664d <out_byte>
    1e67:	83 c4 10             	add    $0x10,%esp
    1e6a:	83 ec 08             	sub    $0x8,%esp
    1e6d:	68 8f 1d 00 00       	push   $0x1d8f
    1e72:	6a 00                	push   $0x0
    1e74:	e8 1c 1a 00 00       	call   3895 <put_irq_handler>
    1e79:	83 c4 10             	add    $0x10,%esp
    1e7c:	83 ec 0c             	sub    $0xc,%esp
    1e7f:	6a 00                	push   $0x0
    1e81:	e8 38 48 00 00       	call   66be <enable_irq>
    1e86:	83 c4 10             	add    $0x10,%esp
    1e89:	90                   	nop
    1e8a:	c9                   	leave  
    1e8b:	c3                   	ret    

00001e8c <keyboard_handler>:
    1e8c:	55                   	push   %ebp
    1e8d:	89 e5                	mov    %esp,%ebp
    1e8f:	83 ec 18             	sub    $0x18,%esp
    1e92:	83 ec 0c             	sub    $0xc,%esp
    1e95:	6a 60                	push   $0x60
    1e97:	e8 bd 47 00 00       	call   6659 <in_byte>
    1e9c:	83 c4 10             	add    $0x10,%esp
    1e9f:	88 45 f7             	mov    %al,-0x9(%ebp)
    1ea2:	a1 28 30 01 00       	mov    0x13028,%eax
    1ea7:	83 f8 1f             	cmp    $0x1f,%eax
    1eaa:	7f 3d                	jg     1ee9 <keyboard_handler+0x5d>
    1eac:	a1 20 30 01 00       	mov    0x13020,%eax
    1eb1:	0f b6 55 f7          	movzbl -0x9(%ebp),%edx
    1eb5:	88 10                	mov    %dl,(%eax)
    1eb7:	a1 20 30 01 00       	mov    0x13020,%eax
    1ebc:	83 c0 01             	add    $0x1,%eax
    1ebf:	a3 20 30 01 00       	mov    %eax,0x13020
    1ec4:	a1 20 30 01 00       	mov    0x13020,%eax
    1ec9:	ba 4c 30 01 00       	mov    $0x1304c,%edx
    1ece:	39 d0                	cmp    %edx,%eax
    1ed0:	75 0a                	jne    1edc <keyboard_handler+0x50>
    1ed2:	c7 05 20 30 01 00 2c 	movl   $0x1302c,0x13020
    1ed9:	30 01 00 
    1edc:	a1 28 30 01 00       	mov    0x13028,%eax
    1ee1:	83 c0 01             	add    $0x1,%eax
    1ee4:	a3 28 30 01 00       	mov    %eax,0x13028
    1ee9:	c7 05 f0 99 03 00 01 	movl   $0x1,0x399f0
    1ef0:	00 00 00 
    1ef3:	90                   	nop
    1ef4:	c9                   	leave  
    1ef5:	c3                   	ret    

00001ef6 <init_keyboard>:
    1ef6:	55                   	push   %ebp
    1ef7:	89 e5                	mov    %esp,%ebp
    1ef9:	83 ec 08             	sub    $0x8,%esp
    1efc:	c7 05 28 30 01 00 00 	movl   $0x0,0x13028
    1f03:	00 00 00 
    1f06:	c7 05 24 30 01 00 2c 	movl   $0x1302c,0x13024
    1f0d:	30 01 00 
    1f10:	a1 24 30 01 00       	mov    0x13024,%eax
    1f15:	a3 20 30 01 00       	mov    %eax,0x13020
    1f1a:	c7 05 54 30 01 00 00 	movl   $0x0,0x13054
    1f21:	00 00 00 
    1f24:	a1 54 30 01 00       	mov    0x13054,%eax
    1f29:	a3 50 30 01 00       	mov    %eax,0x13050
    1f2e:	c7 05 5c 30 01 00 00 	movl   $0x0,0x1305c
    1f35:	00 00 00 
    1f38:	a1 5c 30 01 00       	mov    0x1305c,%eax
    1f3d:	a3 58 30 01 00       	mov    %eax,0x13058
    1f42:	c7 05 64 30 01 00 00 	movl   $0x0,0x13064
    1f49:	00 00 00 
    1f4c:	a1 64 30 01 00       	mov    0x13064,%eax
    1f51:	a3 60 30 01 00       	mov    %eax,0x13060
    1f56:	c7 05 68 30 01 00 00 	movl   $0x0,0x13068
    1f5d:	00 00 00 
    1f60:	c7 05 6c 30 01 00 01 	movl   $0x1,0x1306c
    1f67:	00 00 00 
    1f6a:	c7 05 70 30 01 00 00 	movl   $0x0,0x13070
    1f71:	00 00 00 
    1f74:	c7 05 74 30 01 00 00 	movl   $0x0,0x13074
    1f7b:	00 00 00 
    1f7e:	e8 8d 05 00 00       	call   2510 <set_leds>
    1f83:	83 ec 08             	sub    $0x8,%esp
    1f86:	68 8c 1e 00 00       	push   $0x1e8c
    1f8b:	6a 01                	push   $0x1
    1f8d:	e8 03 19 00 00       	call   3895 <put_irq_handler>
    1f92:	83 c4 10             	add    $0x10,%esp
    1f95:	83 ec 0c             	sub    $0xc,%esp
    1f98:	6a 01                	push   $0x1
    1f9a:	e8 1f 47 00 00       	call   66be <enable_irq>
    1f9f:	83 c4 10             	add    $0x10,%esp
    1fa2:	90                   	nop
    1fa3:	c9                   	leave  
    1fa4:	c3                   	ret    

00001fa5 <keyboard_read>:
    1fa5:	55                   	push   %ebp
    1fa6:	89 e5                	mov    %esp,%ebp
    1fa8:	83 ec 38             	sub    $0x38,%esp
    1fab:	c7 45 ec 00 00 00 00 	movl   $0x0,-0x14(%ebp)
    1fb2:	e9 a9 04 00 00       	jmp    2460 <keyboard_read+0x4bb>
    1fb7:	c7 05 4c 30 01 00 00 	movl   $0x0,0x1304c
    1fbe:	00 00 00 
    1fc1:	e8 aa 04 00 00       	call   2470 <get_byte_from_kb_buf>
    1fc6:	88 45 f7             	mov    %al,-0x9(%ebp)
    1fc9:	80 7d f7 e1          	cmpb   $0xe1,-0x9(%ebp)
    1fcd:	75 67                	jne    2036 <keyboard_read+0x91>
    1fcf:	c6 45 d2 e1          	movb   $0xe1,-0x2e(%ebp)
    1fd3:	c6 45 d3 1d          	movb   $0x1d,-0x2d(%ebp)
    1fd7:	c6 45 d4 45          	movb   $0x45,-0x2c(%ebp)
    1fdb:	c6 45 d5 e1          	movb   $0xe1,-0x2b(%ebp)
    1fdf:	c6 45 d6 9d          	movb   $0x9d,-0x2a(%ebp)
    1fe3:	c6 45 d7 c5          	movb   $0xc5,-0x29(%ebp)
    1fe7:	c7 45 e4 01 00 00 00 	movl   $0x1,-0x1c(%ebp)
    1fee:	c7 45 e8 01 00 00 00 	movl   $0x1,-0x18(%ebp)
    1ff5:	eb 23                	jmp    201a <keyboard_read+0x75>
    1ff7:	e8 74 04 00 00       	call   2470 <get_byte_from_kb_buf>
    1ffc:	89 c1                	mov    %eax,%ecx
    1ffe:	8d 55 d2             	lea    -0x2e(%ebp),%edx
    2001:	8b 45 e8             	mov    -0x18(%ebp),%eax
    2004:	01 d0                	add    %edx,%eax
    2006:	0f b6 00             	movzbl (%eax),%eax
    2009:	38 c1                	cmp    %al,%cl
    200b:	74 09                	je     2016 <keyboard_read+0x71>
    200d:	c7 45 e4 00 00 00 00 	movl   $0x0,-0x1c(%ebp)
    2014:	eb 0a                	jmp    2020 <keyboard_read+0x7b>
    2016:	83 45 e8 01          	addl   $0x1,-0x18(%ebp)
    201a:	83 7d e8 05          	cmpl   $0x5,-0x18(%ebp)
    201e:	7e d7                	jle    1ff7 <keyboard_read+0x52>
    2020:	83 7d e4 00          	cmpl   $0x0,-0x1c(%ebp)
    2024:	0f 84 b2 00 00 00    	je     20dc <keyboard_read+0x137>
    202a:	c7 45 ec 1e 01 00 00 	movl   $0x11e,-0x14(%ebp)
    2031:	e9 a6 00 00 00       	jmp    20dc <keyboard_read+0x137>
    2036:	80 7d f7 e0          	cmpb   $0xe0,-0x9(%ebp)
    203a:	0f 85 9c 00 00 00    	jne    20dc <keyboard_read+0x137>
    2040:	c7 05 4c 30 01 00 01 	movl   $0x1,0x1304c
    2047:	00 00 00 
    204a:	e8 21 04 00 00       	call   2470 <get_byte_from_kb_buf>
    204f:	88 45 f7             	mov    %al,-0x9(%ebp)
    2052:	80 7d f7 2a          	cmpb   $0x2a,-0x9(%ebp)
    2056:	75 40                	jne    2098 <keyboard_read+0xf3>
    2058:	c7 05 4c 30 01 00 00 	movl   $0x0,0x1304c
    205f:	00 00 00 
    2062:	e8 09 04 00 00       	call   2470 <get_byte_from_kb_buf>
    2067:	88 45 f7             	mov    %al,-0x9(%ebp)
    206a:	80 7d f7 e0          	cmpb   $0xe0,-0x9(%ebp)
    206e:	75 6c                	jne    20dc <keyboard_read+0x137>
    2070:	c7 05 4c 30 01 00 01 	movl   $0x1,0x1304c
    2077:	00 00 00 
    207a:	e8 f1 03 00 00       	call   2470 <get_byte_from_kb_buf>
    207f:	88 45 f7             	mov    %al,-0x9(%ebp)
    2082:	80 7d f7 37          	cmpb   $0x37,-0x9(%ebp)
    2086:	75 54                	jne    20dc <keyboard_read+0x137>
    2088:	c7 45 ec 1d 01 00 00 	movl   $0x11d,-0x14(%ebp)
    208f:	c7 45 f0 01 00 00 00 	movl   $0x1,-0x10(%ebp)
    2096:	eb 44                	jmp    20dc <keyboard_read+0x137>
    2098:	80 7d f7 b7          	cmpb   $0xb7,-0x9(%ebp)
    209c:	75 3e                	jne    20dc <keyboard_read+0x137>
    209e:	c7 05 4c 30 01 00 00 	movl   $0x0,0x1304c
    20a5:	00 00 00 
    20a8:	e8 c3 03 00 00       	call   2470 <get_byte_from_kb_buf>
    20ad:	88 45 f7             	mov    %al,-0x9(%ebp)
    20b0:	80 7d f7 e0          	cmpb   $0xe0,-0x9(%ebp)
    20b4:	75 26                	jne    20dc <keyboard_read+0x137>
    20b6:	c7 05 4c 30 01 00 01 	movl   $0x1,0x1304c
    20bd:	00 00 00 
    20c0:	e8 ab 03 00 00       	call   2470 <get_byte_from_kb_buf>
    20c5:	88 45 f7             	mov    %al,-0x9(%ebp)
    20c8:	80 7d f7 aa          	cmpb   $0xaa,-0x9(%ebp)
    20cc:	75 0e                	jne    20dc <keyboard_read+0x137>
    20ce:	c7 45 ec 1d 01 00 00 	movl   $0x11d,-0x14(%ebp)
    20d5:	c7 45 f0 00 00 00 00 	movl   $0x0,-0x10(%ebp)
    20dc:	81 7d ec 1e 01 00 00 	cmpl   $0x11e,-0x14(%ebp)
    20e3:	0f 84 80 01 00 00    	je     2269 <keyboard_read+0x2c4>
    20e9:	81 7d ec 1d 01 00 00 	cmpl   $0x11d,-0x14(%ebp)
    20f0:	0f 84 73 01 00 00    	je     2269 <keyboard_read+0x2c4>
    20f6:	0f b6 45 f7          	movzbl -0x9(%ebp),%eax
    20fa:	f7 d0                	not    %eax
    20fc:	c0 e8 07             	shr    $0x7,%al
    20ff:	0f b6 c0             	movzbl %al,%eax
    2102:	89 45 f0             	mov    %eax,-0x10(%ebp)
    2105:	0f b6 45 f7          	movzbl -0x9(%ebp),%eax
    2109:	83 e0 7f             	and    $0x7f,%eax
    210c:	89 c2                	mov    %eax,%edx
    210e:	89 d0                	mov    %edx,%eax
    2110:	01 c0                	add    %eax,%eax
    2112:	01 d0                	add    %edx,%eax
    2114:	c1 e0 02             	shl    $0x2,%eax
    2117:	05 20 20 01 00       	add    $0x12020,%eax
    211c:	89 45 d8             	mov    %eax,-0x28(%ebp)
    211f:	c7 05 74 30 01 00 00 	movl   $0x0,0x13074
    2126:	00 00 00 
    2129:	a1 50 30 01 00       	mov    0x13050,%eax
    212e:	85 c0                	test   %eax,%eax
    2130:	75 09                	jne    213b <keyboard_read+0x196>
    2132:	a1 54 30 01 00       	mov    0x13054,%eax
    2137:	85 c0                	test   %eax,%eax
    2139:	74 07                	je     2142 <keyboard_read+0x19d>
    213b:	b8 01 00 00 00       	mov    $0x1,%eax
    2140:	eb 05                	jmp    2147 <keyboard_read+0x1a2>
    2142:	b8 00 00 00 00       	mov    $0x0,%eax
    2147:	89 45 e0             	mov    %eax,-0x20(%ebp)
    214a:	a1 68 30 01 00       	mov    0x13068,%eax
    214f:	85 c0                	test   %eax,%eax
    2151:	74 21                	je     2174 <keyboard_read+0x1cf>
    2153:	8b 45 d8             	mov    -0x28(%ebp),%eax
    2156:	8b 00                	mov    (%eax),%eax
    2158:	83 f8 60             	cmp    $0x60,%eax
    215b:	76 17                	jbe    2174 <keyboard_read+0x1cf>
    215d:	8b 45 d8             	mov    -0x28(%ebp),%eax
    2160:	8b 00                	mov    (%eax),%eax
    2162:	83 f8 7a             	cmp    $0x7a,%eax
    2165:	77 0d                	ja     2174 <keyboard_read+0x1cf>
    2167:	83 7d e0 00          	cmpl   $0x0,-0x20(%ebp)
    216b:	0f 94 c0             	sete   %al
    216e:	0f b6 c0             	movzbl %al,%eax
    2171:	89 45 e0             	mov    %eax,-0x20(%ebp)
    2174:	83 7d e0 00          	cmpl   $0x0,-0x20(%ebp)
    2178:	74 0a                	je     2184 <keyboard_read+0x1df>
    217a:	c7 05 74 30 01 00 01 	movl   $0x1,0x13074
    2181:	00 00 00 
    2184:	a1 4c 30 01 00       	mov    0x1304c,%eax
    2189:	85 c0                	test   %eax,%eax
    218b:	74 0a                	je     2197 <keyboard_read+0x1f2>
    218d:	c7 05 74 30 01 00 02 	movl   $0x2,0x13074
    2194:	00 00 00 
    2197:	a1 74 30 01 00       	mov    0x13074,%eax
    219c:	8d 14 85 00 00 00 00 	lea    0x0(,%eax,4),%edx
    21a3:	8b 45 d8             	mov    -0x28(%ebp),%eax
    21a6:	01 d0                	add    %edx,%eax
    21a8:	8b 00                	mov    (%eax),%eax
    21aa:	89 45 ec             	mov    %eax,-0x14(%ebp)
    21ad:	8b 45 ec             	mov    -0x14(%ebp),%eax
    21b0:	2d 08 01 00 00       	sub    $0x108,%eax
    21b5:	83 f8 08             	cmp    $0x8,%eax
    21b8:	0f 87 ae 00 00 00    	ja     226c <keyboard_read+0x2c7>
    21be:	8b 04 85 c0 cd 00 00 	mov    0xcdc0(,%eax,4),%eax
    21c5:	ff e0                	jmp    *%eax
    21c7:	8b 45 f0             	mov    -0x10(%ebp),%eax
    21ca:	a3 50 30 01 00       	mov    %eax,0x13050
    21cf:	e9 a2 00 00 00       	jmp    2276 <keyboard_read+0x2d1>
    21d4:	8b 45 f0             	mov    -0x10(%ebp),%eax
    21d7:	a3 54 30 01 00       	mov    %eax,0x13054
    21dc:	e9 95 00 00 00       	jmp    2276 <keyboard_read+0x2d1>
    21e1:	8b 45 f0             	mov    -0x10(%ebp),%eax
    21e4:	a3 60 30 01 00       	mov    %eax,0x13060
    21e9:	e9 88 00 00 00       	jmp    2276 <keyboard_read+0x2d1>
    21ee:	8b 45 f0             	mov    -0x10(%ebp),%eax
    21f1:	a3 64 30 01 00       	mov    %eax,0x13064
    21f6:	eb 7e                	jmp    2276 <keyboard_read+0x2d1>
    21f8:	8b 45 f0             	mov    -0x10(%ebp),%eax
    21fb:	a3 58 30 01 00       	mov    %eax,0x13058
    2200:	eb 74                	jmp    2276 <keyboard_read+0x2d1>
    2202:	8b 45 f0             	mov    -0x10(%ebp),%eax
    2205:	a3 58 30 01 00       	mov    %eax,0x13058
    220a:	eb 6a                	jmp    2276 <keyboard_read+0x2d1>
    220c:	83 7d f0 00          	cmpl   $0x0,-0x10(%ebp)
    2210:	74 5d                	je     226f <keyboard_read+0x2ca>
    2212:	a1 68 30 01 00       	mov    0x13068,%eax
    2217:	85 c0                	test   %eax,%eax
    2219:	0f 94 c0             	sete   %al
    221c:	0f b6 c0             	movzbl %al,%eax
    221f:	a3 68 30 01 00       	mov    %eax,0x13068
    2224:	e8 e7 02 00 00       	call   2510 <set_leds>
    2229:	eb 44                	jmp    226f <keyboard_read+0x2ca>
    222b:	83 7d f0 00          	cmpl   $0x0,-0x10(%ebp)
    222f:	74 41                	je     2272 <keyboard_read+0x2cd>
    2231:	a1 6c 30 01 00       	mov    0x1306c,%eax
    2236:	85 c0                	test   %eax,%eax
    2238:	0f 94 c0             	sete   %al
    223b:	0f b6 c0             	movzbl %al,%eax
    223e:	a3 6c 30 01 00       	mov    %eax,0x1306c
    2243:	e8 c8 02 00 00       	call   2510 <set_leds>
    2248:	eb 28                	jmp    2272 <keyboard_read+0x2cd>
    224a:	83 7d f0 00          	cmpl   $0x0,-0x10(%ebp)
    224e:	74 25                	je     2275 <keyboard_read+0x2d0>
    2250:	a1 70 30 01 00       	mov    0x13070,%eax
    2255:	85 c0                	test   %eax,%eax
    2257:	0f 94 c0             	sete   %al
    225a:	0f b6 c0             	movzbl %al,%eax
    225d:	a3 70 30 01 00       	mov    %eax,0x13070
    2262:	e8 a9 02 00 00       	call   2510 <set_leds>
    2267:	eb 0c                	jmp    2275 <keyboard_read+0x2d0>
    2269:	90                   	nop
    226a:	eb 0a                	jmp    2276 <keyboard_read+0x2d1>
    226c:	90                   	nop
    226d:	eb 07                	jmp    2276 <keyboard_read+0x2d1>
    226f:	90                   	nop
    2270:	eb 04                	jmp    2276 <keyboard_read+0x2d1>
    2272:	90                   	nop
    2273:	eb 01                	jmp    2276 <keyboard_read+0x2d1>
    2275:	90                   	nop
    2276:	83 7d f0 00          	cmpl   $0x0,-0x10(%ebp)
    227a:	0f 84 e0 01 00 00    	je     2460 <keyboard_read+0x4bb>
    2280:	c7 45 dc 00 00 00 00 	movl   $0x0,-0x24(%ebp)
    2287:	81 7d ec 2b 01 00 00 	cmpl   $0x12b,-0x14(%ebp)
    228e:	0f 86 12 01 00 00    	jbe    23a6 <keyboard_read+0x401>
    2294:	81 7d ec 3b 01 00 00 	cmpl   $0x13b,-0x14(%ebp)
    229b:	0f 87 05 01 00 00    	ja     23a6 <keyboard_read+0x401>
    22a1:	c7 45 dc 01 00 00 00 	movl   $0x1,-0x24(%ebp)
    22a8:	8b 45 ec             	mov    -0x14(%ebp),%eax
    22ab:	2d 2c 01 00 00       	sub    $0x12c,%eax
    22b0:	83 f8 04             	cmp    $0x4,%eax
    22b3:	77 45                	ja     22fa <keyboard_read+0x355>
    22b5:	8b 04 85 e4 cd 00 00 	mov    0xcde4(,%eax,4),%eax
    22bc:	ff e0                	jmp    *%eax
    22be:	c7 45 ec 2f 00 00 00 	movl   $0x2f,-0x14(%ebp)
    22c5:	e9 e0 00 00 00       	jmp    23aa <keyboard_read+0x405>
    22ca:	c7 45 ec 2a 00 00 00 	movl   $0x2a,-0x14(%ebp)
    22d1:	e9 d4 00 00 00       	jmp    23aa <keyboard_read+0x405>
    22d6:	c7 45 ec 2d 00 00 00 	movl   $0x2d,-0x14(%ebp)
    22dd:	e9 c8 00 00 00       	jmp    23aa <keyboard_read+0x405>
    22e2:	c7 45 ec 2b 00 00 00 	movl   $0x2b,-0x14(%ebp)
    22e9:	e9 bc 00 00 00       	jmp    23aa <keyboard_read+0x405>
    22ee:	c7 45 ec 03 01 00 00 	movl   $0x103,-0x14(%ebp)
    22f5:	e9 b0 00 00 00       	jmp    23aa <keyboard_read+0x405>
    22fa:	a1 6c 30 01 00       	mov    0x1306c,%eax
    22ff:	85 c0                	test   %eax,%eax
    2301:	74 30                	je     2333 <keyboard_read+0x38e>
    2303:	81 7d ec 31 01 00 00 	cmpl   $0x131,-0x14(%ebp)
    230a:	76 15                	jbe    2321 <keyboard_read+0x37c>
    230c:	81 7d ec 3b 01 00 00 	cmpl   $0x13b,-0x14(%ebp)
    2313:	77 0c                	ja     2321 <keyboard_read+0x37c>
    2315:	81 6d ec 02 01 00 00 	subl   $0x102,-0x14(%ebp)
    231c:	e9 83 00 00 00       	jmp    23a4 <keyboard_read+0x3ff>
    2321:	81 7d ec 31 01 00 00 	cmpl   $0x131,-0x14(%ebp)
    2328:	75 7f                	jne    23a9 <keyboard_read+0x404>
    232a:	c7 45 ec 2e 00 00 00 	movl   $0x2e,-0x14(%ebp)
    2331:	eb 76                	jmp    23a9 <keyboard_read+0x404>
    2333:	8b 45 ec             	mov    -0x14(%ebp),%eax
    2336:	2d 31 01 00 00       	sub    $0x131,%eax
    233b:	83 f8 0a             	cmp    $0xa,%eax
    233e:	77 63                	ja     23a3 <keyboard_read+0x3fe>
    2340:	8b 04 85 f8 cd 00 00 	mov    0xcdf8(,%eax,4),%eax
    2347:	ff e0                	jmp    *%eax
    2349:	c7 45 ec 21 01 00 00 	movl   $0x121,-0x14(%ebp)
    2350:	eb 52                	jmp    23a4 <keyboard_read+0x3ff>
    2352:	c7 45 ec 22 01 00 00 	movl   $0x122,-0x14(%ebp)
    2359:	eb 49                	jmp    23a4 <keyboard_read+0x3ff>
    235b:	c7 45 ec 23 01 00 00 	movl   $0x123,-0x14(%ebp)
    2362:	eb 40                	jmp    23a4 <keyboard_read+0x3ff>
    2364:	c7 45 ec 24 01 00 00 	movl   $0x124,-0x14(%ebp)
    236b:	eb 37                	jmp    23a4 <keyboard_read+0x3ff>
    236d:	c7 45 ec 1f 01 00 00 	movl   $0x11f,-0x14(%ebp)
    2374:	eb 2e                	jmp    23a4 <keyboard_read+0x3ff>
    2376:	c7 45 ec 25 01 00 00 	movl   $0x125,-0x14(%ebp)
    237d:	eb 25                	jmp    23a4 <keyboard_read+0x3ff>
    237f:	c7 45 ec 26 01 00 00 	movl   $0x126,-0x14(%ebp)
    2386:	eb 1c                	jmp    23a4 <keyboard_read+0x3ff>
    2388:	c7 45 ec 27 01 00 00 	movl   $0x127,-0x14(%ebp)
    238f:	eb 13                	jmp    23a4 <keyboard_read+0x3ff>
    2391:	c7 45 ec 28 01 00 00 	movl   $0x128,-0x14(%ebp)
    2398:	eb 0a                	jmp    23a4 <keyboard_read+0x3ff>
    239a:	c7 45 ec 20 01 00 00 	movl   $0x120,-0x14(%ebp)
    23a1:	eb 01                	jmp    23a4 <keyboard_read+0x3ff>
    23a3:	90                   	nop
    23a4:	eb 03                	jmp    23a9 <keyboard_read+0x404>
    23a6:	90                   	nop
    23a7:	eb 01                	jmp    23aa <keyboard_read+0x405>
    23a9:	90                   	nop
    23aa:	a1 50 30 01 00       	mov    0x13050,%eax
    23af:	85 c0                	test   %eax,%eax
    23b1:	74 07                	je     23ba <keyboard_read+0x415>
    23b3:	b8 00 02 00 00       	mov    $0x200,%eax
    23b8:	eb 05                	jmp    23bf <keyboard_read+0x41a>
    23ba:	b8 00 00 00 00       	mov    $0x0,%eax
    23bf:	09 45 ec             	or     %eax,-0x14(%ebp)
    23c2:	a1 54 30 01 00       	mov    0x13054,%eax
    23c7:	85 c0                	test   %eax,%eax
    23c9:	74 07                	je     23d2 <keyboard_read+0x42d>
    23cb:	b8 00 04 00 00       	mov    $0x400,%eax
    23d0:	eb 05                	jmp    23d7 <keyboard_read+0x432>
    23d2:	b8 00 00 00 00       	mov    $0x0,%eax
    23d7:	09 45 ec             	or     %eax,-0x14(%ebp)
    23da:	a1 60 30 01 00       	mov    0x13060,%eax
    23df:	85 c0                	test   %eax,%eax
    23e1:	74 07                	je     23ea <keyboard_read+0x445>
    23e3:	b8 00 08 00 00       	mov    $0x800,%eax
    23e8:	eb 05                	jmp    23ef <keyboard_read+0x44a>
    23ea:	b8 00 00 00 00       	mov    $0x0,%eax
    23ef:	09 45 ec             	or     %eax,-0x14(%ebp)
    23f2:	a1 64 30 01 00       	mov    0x13064,%eax
    23f7:	85 c0                	test   %eax,%eax
    23f9:	74 07                	je     2402 <keyboard_read+0x45d>
    23fb:	b8 00 10 00 00       	mov    $0x1000,%eax
    2400:	eb 05                	jmp    2407 <keyboard_read+0x462>
    2402:	b8 00 00 00 00       	mov    $0x0,%eax
    2407:	09 45 ec             	or     %eax,-0x14(%ebp)
    240a:	a1 58 30 01 00       	mov    0x13058,%eax
    240f:	85 c0                	test   %eax,%eax
    2411:	74 07                	je     241a <keyboard_read+0x475>
    2413:	b8 00 20 00 00       	mov    $0x2000,%eax
    2418:	eb 05                	jmp    241f <keyboard_read+0x47a>
    241a:	b8 00 00 00 00       	mov    $0x0,%eax
    241f:	09 45 ec             	or     %eax,-0x14(%ebp)
    2422:	a1 5c 30 01 00       	mov    0x1305c,%eax
    2427:	85 c0                	test   %eax,%eax
    2429:	74 07                	je     2432 <keyboard_read+0x48d>
    242b:	b8 00 40 00 00       	mov    $0x4000,%eax
    2430:	eb 05                	jmp    2437 <keyboard_read+0x492>
    2432:	b8 00 00 00 00       	mov    $0x0,%eax
    2437:	09 45 ec             	or     %eax,-0x14(%ebp)
    243a:	83 7d dc 00          	cmpl   $0x0,-0x24(%ebp)
    243e:	74 07                	je     2447 <keyboard_read+0x4a2>
    2440:	b8 00 80 00 00       	mov    $0x8000,%eax
    2445:	eb 05                	jmp    244c <keyboard_read+0x4a7>
    2447:	b8 00 00 00 00       	mov    $0x0,%eax
    244c:	09 45 ec             	or     %eax,-0x14(%ebp)
    244f:	83 ec 08             	sub    $0x8,%esp
    2452:	ff 75 ec             	pushl  -0x14(%ebp)
    2455:	ff 75 08             	pushl  0x8(%ebp)
    2458:	e8 02 03 00 00       	call   275f <in_process>
    245d:	83 c4 10             	add    $0x10,%esp
    2460:	a1 28 30 01 00       	mov    0x13028,%eax
    2465:	85 c0                	test   %eax,%eax
    2467:	0f 8f 4a fb ff ff    	jg     1fb7 <keyboard_read+0x12>
    246d:	90                   	nop
    246e:	c9                   	leave  
    246f:	c3                   	ret    

00002470 <get_byte_from_kb_buf>:
    2470:	55                   	push   %ebp
    2471:	89 e5                	mov    %esp,%ebp
    2473:	83 ec 18             	sub    $0x18,%esp
    2476:	90                   	nop
    2477:	a1 28 30 01 00       	mov    0x13028,%eax
    247c:	85 c0                	test   %eax,%eax
    247e:	7e f7                	jle    2477 <get_byte_from_kb_buf+0x7>
    2480:	e8 58 42 00 00       	call   66dd <disable_int>
    2485:	a1 24 30 01 00       	mov    0x13024,%eax
    248a:	0f b6 00             	movzbl (%eax),%eax
    248d:	88 45 f7             	mov    %al,-0x9(%ebp)
    2490:	a1 24 30 01 00       	mov    0x13024,%eax
    2495:	83 c0 01             	add    $0x1,%eax
    2498:	a3 24 30 01 00       	mov    %eax,0x13024
    249d:	a1 24 30 01 00       	mov    0x13024,%eax
    24a2:	ba 4c 30 01 00       	mov    $0x1304c,%edx
    24a7:	39 d0                	cmp    %edx,%eax
    24a9:	75 0a                	jne    24b5 <get_byte_from_kb_buf+0x45>
    24ab:	c7 05 24 30 01 00 2c 	movl   $0x1302c,0x13024
    24b2:	30 01 00 
    24b5:	a1 28 30 01 00       	mov    0x13028,%eax
    24ba:	83 e8 01             	sub    $0x1,%eax
    24bd:	a3 28 30 01 00       	mov    %eax,0x13028
    24c2:	e8 18 42 00 00       	call   66df <enable_int>
    24c7:	0f b6 45 f7          	movzbl -0x9(%ebp),%eax
    24cb:	c9                   	leave  
    24cc:	c3                   	ret    

000024cd <kb_wait>:
    24cd:	55                   	push   %ebp
    24ce:	89 e5                	mov    %esp,%ebp
    24d0:	83 ec 18             	sub    $0x18,%esp
    24d3:	83 ec 0c             	sub    $0xc,%esp
    24d6:	6a 64                	push   $0x64
    24d8:	e8 7c 41 00 00       	call   6659 <in_byte>
    24dd:	83 c4 10             	add    $0x10,%esp
    24e0:	88 45 f7             	mov    %al,-0x9(%ebp)
    24e3:	0f b6 45 f7          	movzbl -0x9(%ebp),%eax
    24e7:	83 e0 02             	and    $0x2,%eax
    24ea:	85 c0                	test   %eax,%eax
    24ec:	75 e5                	jne    24d3 <kb_wait+0x6>
    24ee:	90                   	nop
    24ef:	c9                   	leave  
    24f0:	c3                   	ret    

000024f1 <kb_ack>:
    24f1:	55                   	push   %ebp
    24f2:	89 e5                	mov    %esp,%ebp
    24f4:	83 ec 18             	sub    $0x18,%esp
    24f7:	83 ec 0c             	sub    $0xc,%esp
    24fa:	6a 60                	push   $0x60
    24fc:	e8 58 41 00 00       	call   6659 <in_byte>
    2501:	83 c4 10             	add    $0x10,%esp
    2504:	88 45 f7             	mov    %al,-0x9(%ebp)
    2507:	80 7d f7 fa          	cmpb   $0xfa,-0x9(%ebp)
    250b:	75 ea                	jne    24f7 <kb_ack+0x6>
    250d:	90                   	nop
    250e:	c9                   	leave  
    250f:	c3                   	ret    

00002510 <set_leds>:
    2510:	55                   	push   %ebp
    2511:	89 e5                	mov    %esp,%ebp
    2513:	83 ec 18             	sub    $0x18,%esp
    2516:	a1 68 30 01 00       	mov    0x13068,%eax
    251b:	c1 e0 02             	shl    $0x2,%eax
    251e:	89 c2                	mov    %eax,%edx
    2520:	a1 6c 30 01 00       	mov    0x1306c,%eax
    2525:	01 c0                	add    %eax,%eax
    2527:	09 c2                	or     %eax,%edx
    2529:	a1 70 30 01 00       	mov    0x13070,%eax
    252e:	09 d0                	or     %edx,%eax
    2530:	88 45 f7             	mov    %al,-0x9(%ebp)
    2533:	e8 95 ff ff ff       	call   24cd <kb_wait>
    2538:	83 ec 08             	sub    $0x8,%esp
    253b:	68 ed 00 00 00       	push   $0xed
    2540:	6a 60                	push   $0x60
    2542:	e8 06 41 00 00       	call   664d <out_byte>
    2547:	83 c4 10             	add    $0x10,%esp
    254a:	e8 a2 ff ff ff       	call   24f1 <kb_ack>
    254f:	e8 79 ff ff ff       	call   24cd <kb_wait>
    2554:	0f b6 45 f7          	movzbl -0x9(%ebp),%eax
    2558:	83 ec 08             	sub    $0x8,%esp
    255b:	50                   	push   %eax
    255c:	6a 60                	push   $0x60
    255e:	e8 ea 40 00 00       	call   664d <out_byte>
    2563:	83 c4 10             	add    $0x10,%esp
    2566:	e8 86 ff ff ff       	call   24f1 <kb_ack>
    256b:	90                   	nop
    256c:	c9                   	leave  
    256d:	c3                   	ret    

0000256e <task_tty>:
    256e:	55                   	push   %ebp
    256f:	89 e5                	mov    %esp,%ebp
    2571:	83 ec 48             	sub    $0x48,%esp
    2574:	e8 7d f9 ff ff       	call   1ef6 <init_keyboard>
    2579:	c7 45 f4 60 88 03 00 	movl   $0x38860,-0xc(%ebp)
    2580:	eb 15                	jmp    2597 <task_tty+0x29>
    2582:	83 ec 0c             	sub    $0xc,%esp
    2585:	ff 75 f4             	pushl  -0xc(%ebp)
    2588:	e8 4f 01 00 00       	call   26dc <init_tty>
    258d:	83 c4 10             	add    $0x10,%esp
    2590:	81 45 f4 24 04 00 00 	addl   $0x424,-0xc(%ebp)
    2597:	b8 cc 94 03 00       	mov    $0x394cc,%eax
    259c:	39 45 f4             	cmp    %eax,-0xc(%ebp)
    259f:	72 e1                	jb     2582 <task_tty+0x14>
    25a1:	83 ec 0c             	sub    $0xc,%esp
    25a4:	6a 00                	push   $0x0
    25a6:	e8 4b 0f 00 00       	call   34f6 <select_console>
    25ab:	83 c4 10             	add    $0x10,%esp
    25ae:	c7 45 f4 60 88 03 00 	movl   $0x38860,-0xc(%ebp)
    25b5:	eb 30                	jmp    25e7 <task_tty+0x79>
    25b7:	83 ec 0c             	sub    $0xc,%esp
    25ba:	ff 75 f4             	pushl  -0xc(%ebp)
    25bd:	e8 21 03 00 00       	call   28e3 <tty_dev_read>
    25c2:	83 c4 10             	add    $0x10,%esp
    25c5:	83 ec 0c             	sub    $0xc,%esp
    25c8:	ff 75 f4             	pushl  -0xc(%ebp)
    25cb:	e8 43 03 00 00       	call   2913 <tty_dev_write>
    25d0:	83 c4 10             	add    $0x10,%esp
    25d3:	8b 45 f4             	mov    -0xc(%ebp),%eax
    25d6:	8b 80 08 04 00 00    	mov    0x408(%eax),%eax
    25dc:	85 c0                	test   %eax,%eax
    25de:	75 d7                	jne    25b7 <task_tty+0x49>
    25e0:	81 45 f4 24 04 00 00 	addl   $0x424,-0xc(%ebp)
    25e7:	b8 cc 94 03 00       	mov    $0x394cc,%eax
    25ec:	39 45 f4             	cmp    %eax,-0xc(%ebp)
    25ef:	72 c6                	jb     25b7 <task_tty+0x49>
    25f1:	83 ec 04             	sub    $0x4,%esp
    25f4:	8d 45 bc             	lea    -0x44(%ebp),%eax
    25f7:	50                   	push   %eax
    25f8:	6a 2f                	push   $0x2f
    25fa:	6a 02                	push   $0x2
    25fc:	e8 c7 9e 00 00       	call   c4c8 <send_recv>
    2601:	83 c4 10             	add    $0x10,%esp
    2604:	8b 45 bc             	mov    -0x44(%ebp),%eax
    2607:	89 45 f0             	mov    %eax,-0x10(%ebp)
    260a:	83 7d f0 00          	cmpl   $0x0,-0x10(%ebp)
    260e:	75 19                	jne    2629 <task_tty+0xbb>
    2610:	6a 5e                	push   $0x5e
    2612:	68 24 ce 00 00       	push   $0xce24
    2617:	68 24 ce 00 00       	push   $0xce24
    261c:	68 31 ce 00 00       	push   $0xce31
    2621:	e8 b7 a0 00 00       	call   c6dd <assertion_failure>
    2626:	83 c4 10             	add    $0x10,%esp
    2629:	8b 45 d0             	mov    -0x30(%ebp),%eax
    262c:	69 c0 24 04 00 00    	imul   $0x424,%eax,%eax
    2632:	05 60 88 03 00       	add    $0x38860,%eax
    2637:	89 45 ec             	mov    %eax,-0x14(%ebp)
    263a:	8b 45 c0             	mov    -0x40(%ebp),%eax
    263d:	3d e9 03 00 00       	cmp    $0x3e9,%eax
    2642:	74 1e                	je     2662 <task_tty+0xf4>
    2644:	3d e9 03 00 00       	cmp    $0x3e9,%eax
    2649:	7f 07                	jg     2652 <task_tty+0xe4>
    264b:	83 f8 01             	cmp    $0x1,%eax
    264e:	74 66                	je     26b6 <task_tty+0x148>
    2650:	eb 70                	jmp    26c2 <task_tty+0x154>
    2652:	3d eb 03 00 00       	cmp    $0x3eb,%eax
    2657:	74 35                	je     268e <task_tty+0x120>
    2659:	3d ec 03 00 00       	cmp    $0x3ec,%eax
    265e:	74 42                	je     26a2 <task_tty+0x134>
    2660:	eb 60                	jmp    26c2 <task_tty+0x154>
    2662:	83 ec 0c             	sub    $0xc,%esp
    2665:	8d 45 bc             	lea    -0x44(%ebp),%eax
    2668:	50                   	push   %eax
    2669:	e8 fa 1a 00 00       	call   4168 <reset_msg>
    266e:	83 c4 10             	add    $0x10,%esp
    2671:	c7 45 c0 12 00 00 00 	movl   $0x12,-0x40(%ebp)
    2678:	83 ec 04             	sub    $0x4,%esp
    267b:	8d 45 bc             	lea    -0x44(%ebp),%eax
    267e:	50                   	push   %eax
    267f:	ff 75 f0             	pushl  -0x10(%ebp)
    2682:	6a 01                	push   $0x1
    2684:	e8 3f 9e 00 00       	call   c4c8 <send_recv>
    2689:	83 c4 10             	add    $0x10,%esp
    268c:	eb 49                	jmp    26d7 <task_tty+0x169>
    268e:	83 ec 08             	sub    $0x8,%esp
    2691:	8d 45 bc             	lea    -0x44(%ebp),%eax
    2694:	50                   	push   %eax
    2695:	ff 75 ec             	pushl  -0x14(%ebp)
    2698:	e8 c0 04 00 00       	call   2b5d <tty_do_read>
    269d:	83 c4 10             	add    $0x10,%esp
    26a0:	eb 35                	jmp    26d7 <task_tty+0x169>
    26a2:	83 ec 08             	sub    $0x8,%esp
    26a5:	8d 45 bc             	lea    -0x44(%ebp),%eax
    26a8:	50                   	push   %eax
    26a9:	ff 75 ec             	pushl  -0x14(%ebp)
    26ac:	e8 39 05 00 00       	call   2bea <tty_do_write>
    26b1:	83 c4 10             	add    $0x10,%esp
    26b4:	eb 21                	jmp    26d7 <task_tty+0x169>
    26b6:	c7 05 f0 99 03 00 00 	movl   $0x0,0x399f0
    26bd:	00 00 00 
    26c0:	eb 15                	jmp    26d7 <task_tty+0x169>
    26c2:	83 ec 08             	sub    $0x8,%esp
    26c5:	8d 45 bc             	lea    -0x44(%ebp),%eax
    26c8:	50                   	push   %eax
    26c9:	68 41 ce 00 00       	push   $0xce41
    26ce:	e8 11 2d 00 00       	call   53e4 <dump_msg>
    26d3:	83 c4 10             	add    $0x10,%esp
    26d6:	90                   	nop
    26d7:	e9 d2 fe ff ff       	jmp    25ae <task_tty+0x40>

000026dc <init_tty>:
    26dc:	55                   	push   %ebp
    26dd:	89 e5                	mov    %esp,%ebp
    26df:	83 ec 08             	sub    $0x8,%esp
    26e2:	8b 45 08             	mov    0x8(%ebp),%eax
    26e5:	c7 80 08 04 00 00 00 	movl   $0x0,0x408(%eax)
    26ec:	00 00 00 
    26ef:	8b 55 08             	mov    0x8(%ebp),%edx
    26f2:	8b 45 08             	mov    0x8(%ebp),%eax
    26f5:	89 90 04 04 00 00    	mov    %edx,0x404(%eax)
    26fb:	8b 45 08             	mov    0x8(%ebp),%eax
    26fe:	8b 90 04 04 00 00    	mov    0x404(%eax),%edx
    2704:	8b 45 08             	mov    0x8(%ebp),%eax
    2707:	89 90 00 04 00 00    	mov    %edx,0x400(%eax)
    270d:	8b 45 08             	mov    0x8(%ebp),%eax
    2710:	c7 80 0c 04 00 00 39 	movl   $0x39,0x40c(%eax)
    2717:	00 00 00 
    271a:	8b 45 08             	mov    0x8(%ebp),%eax
    271d:	c7 80 10 04 00 00 39 	movl   $0x39,0x410(%eax)
    2724:	00 00 00 
    2727:	8b 45 08             	mov    0x8(%ebp),%eax
    272a:	c7 80 14 04 00 00 00 	movl   $0x0,0x414(%eax)
    2731:	00 00 00 
    2734:	8b 45 08             	mov    0x8(%ebp),%eax
    2737:	c7 80 18 04 00 00 00 	movl   $0x0,0x418(%eax)
    273e:	00 00 00 
    2741:	8b 45 08             	mov    0x8(%ebp),%eax
    2744:	c7 80 1c 04 00 00 00 	movl   $0x0,0x41c(%eax)
    274b:	00 00 00 
    274e:	83 ec 0c             	sub    $0xc,%esp
    2751:	ff 75 08             	pushl  0x8(%ebp)
    2754:	e8 59 08 00 00       	call   2fb2 <init_screen>
    2759:	83 c4 10             	add    $0x10,%esp
    275c:	90                   	nop
    275d:	c9                   	leave  
    275e:	c3                   	ret    

0000275f <in_process>:
    275f:	55                   	push   %ebp
    2760:	89 e5                	mov    %esp,%ebp
    2762:	83 ec 18             	sub    $0x18,%esp
    2765:	8b 45 0c             	mov    0xc(%ebp),%eax
    2768:	25 00 01 00 00       	and    $0x100,%eax
    276d:	85 c0                	test   %eax,%eax
    276f:	75 16                	jne    2787 <in_process+0x28>
    2771:	83 ec 08             	sub    $0x8,%esp
    2774:	ff 75 0c             	pushl  0xc(%ebp)
    2777:	ff 75 08             	pushl  0x8(%ebp)
    277a:	e8 f4 00 00 00       	call   2873 <put_key>
    277f:	83 c4 10             	add    $0x10,%esp
    2782:	e9 e9 00 00 00       	jmp    2870 <in_process+0x111>
    2787:	8b 45 0c             	mov    0xc(%ebp),%eax
    278a:	25 ff 01 00 00       	and    $0x1ff,%eax
    278f:	89 45 f4             	mov    %eax,-0xc(%ebp)
    2792:	8b 45 f4             	mov    -0xc(%ebp),%eax
    2795:	2d 03 01 00 00       	sub    $0x103,%eax
    279a:	83 f8 23             	cmp    $0x23,%eax
    279d:	0f 87 c3 00 00 00    	ja     2866 <in_process+0x107>
    27a3:	8b 04 85 54 ce 00 00 	mov    0xce54(,%eax,4),%eax
    27aa:	ff e0                	jmp    *%eax
    27ac:	83 ec 08             	sub    $0x8,%esp
    27af:	6a 0a                	push   $0xa
    27b1:	ff 75 08             	pushl  0x8(%ebp)
    27b4:	e8 ba 00 00 00       	call   2873 <put_key>
    27b9:	83 c4 10             	add    $0x10,%esp
    27bc:	e9 af 00 00 00       	jmp    2870 <in_process+0x111>
    27c1:	83 ec 08             	sub    $0x8,%esp
    27c4:	6a 08                	push   $0x8
    27c6:	ff 75 08             	pushl  0x8(%ebp)
    27c9:	e8 a5 00 00 00       	call   2873 <put_key>
    27ce:	83 c4 10             	add    $0x10,%esp
    27d1:	e9 9a 00 00 00       	jmp    2870 <in_process+0x111>
    27d6:	8b 45 0c             	mov    0xc(%ebp),%eax
    27d9:	25 00 02 00 00       	and    $0x200,%eax
    27de:	85 c0                	test   %eax,%eax
    27e0:	75 0c                	jne    27ee <in_process+0x8f>
    27e2:	8b 45 0c             	mov    0xc(%ebp),%eax
    27e5:	25 00 04 00 00       	and    $0x400,%eax
    27ea:	85 c0                	test   %eax,%eax
    27ec:	74 7b                	je     2869 <in_process+0x10a>
    27ee:	8b 45 08             	mov    0x8(%ebp),%eax
    27f1:	8b 80 20 04 00 00    	mov    0x420(%eax),%eax
    27f7:	83 ec 08             	sub    $0x8,%esp
    27fa:	6a ff                	push   $0xffffffff
    27fc:	50                   	push   %eax
    27fd:	e8 34 0d 00 00       	call   3536 <scroll_screen>
    2802:	83 c4 10             	add    $0x10,%esp
    2805:	eb 62                	jmp    2869 <in_process+0x10a>
    2807:	8b 45 0c             	mov    0xc(%ebp),%eax
    280a:	25 00 02 00 00       	and    $0x200,%eax
    280f:	85 c0                	test   %eax,%eax
    2811:	75 0c                	jne    281f <in_process+0xc0>
    2813:	8b 45 0c             	mov    0xc(%ebp),%eax
    2816:	25 00 04 00 00       	and    $0x400,%eax
    281b:	85 c0                	test   %eax,%eax
    281d:	74 4d                	je     286c <in_process+0x10d>
    281f:	8b 45 08             	mov    0x8(%ebp),%eax
    2822:	8b 80 20 04 00 00    	mov    0x420(%eax),%eax
    2828:	83 ec 08             	sub    $0x8,%esp
    282b:	6a 01                	push   $0x1
    282d:	50                   	push   %eax
    282e:	e8 03 0d 00 00       	call   3536 <scroll_screen>
    2833:	83 c4 10             	add    $0x10,%esp
    2836:	eb 34                	jmp    286c <in_process+0x10d>
    2838:	8b 45 0c             	mov    0xc(%ebp),%eax
    283b:	25 00 20 00 00       	and    $0x2000,%eax
    2840:	85 c0                	test   %eax,%eax
    2842:	75 0c                	jne    2850 <in_process+0xf1>
    2844:	8b 45 0c             	mov    0xc(%ebp),%eax
    2847:	25 00 40 00 00       	and    $0x4000,%eax
    284c:	85 c0                	test   %eax,%eax
    284e:	74 1f                	je     286f <in_process+0x110>
    2850:	8b 45 f4             	mov    -0xc(%ebp),%eax
    2853:	2d 11 01 00 00       	sub    $0x111,%eax
    2858:	83 ec 0c             	sub    $0xc,%esp
    285b:	50                   	push   %eax
    285c:	e8 95 0c 00 00       	call   34f6 <select_console>
    2861:	83 c4 10             	add    $0x10,%esp
    2864:	eb 09                	jmp    286f <in_process+0x110>
    2866:	90                   	nop
    2867:	eb 07                	jmp    2870 <in_process+0x111>
    2869:	90                   	nop
    286a:	eb 04                	jmp    2870 <in_process+0x111>
    286c:	90                   	nop
    286d:	eb 01                	jmp    2870 <in_process+0x111>
    286f:	90                   	nop
    2870:	90                   	nop
    2871:	c9                   	leave  
    2872:	c3                   	ret    

00002873 <put_key>:
    2873:	55                   	push   %ebp
    2874:	89 e5                	mov    %esp,%ebp
    2876:	8b 45 08             	mov    0x8(%ebp),%eax
    2879:	8b 80 08 04 00 00    	mov    0x408(%eax),%eax
    287f:	3d ff 00 00 00       	cmp    $0xff,%eax
    2884:	7f 5a                	jg     28e0 <put_key+0x6d>
    2886:	8b 45 08             	mov    0x8(%ebp),%eax
    2889:	8b 80 00 04 00 00    	mov    0x400(%eax),%eax
    288f:	8b 55 0c             	mov    0xc(%ebp),%edx
    2892:	89 10                	mov    %edx,(%eax)
    2894:	8b 45 08             	mov    0x8(%ebp),%eax
    2897:	8b 80 00 04 00 00    	mov    0x400(%eax),%eax
    289d:	8d 50 04             	lea    0x4(%eax),%edx
    28a0:	8b 45 08             	mov    0x8(%ebp),%eax
    28a3:	89 90 00 04 00 00    	mov    %edx,0x400(%eax)
    28a9:	8b 45 08             	mov    0x8(%ebp),%eax
    28ac:	8b 80 00 04 00 00    	mov    0x400(%eax),%eax
    28b2:	8b 55 08             	mov    0x8(%ebp),%edx
    28b5:	81 c2 00 04 00 00    	add    $0x400,%edx
    28bb:	39 d0                	cmp    %edx,%eax
    28bd:	75 0c                	jne    28cb <put_key+0x58>
    28bf:	8b 55 08             	mov    0x8(%ebp),%edx
    28c2:	8b 45 08             	mov    0x8(%ebp),%eax
    28c5:	89 90 00 04 00 00    	mov    %edx,0x400(%eax)
    28cb:	8b 45 08             	mov    0x8(%ebp),%eax
    28ce:	8b 80 08 04 00 00    	mov    0x408(%eax),%eax
    28d4:	8d 50 01             	lea    0x1(%eax),%edx
    28d7:	8b 45 08             	mov    0x8(%ebp),%eax
    28da:	89 90 08 04 00 00    	mov    %edx,0x408(%eax)
    28e0:	90                   	nop
    28e1:	5d                   	pop    %ebp
    28e2:	c3                   	ret    

000028e3 <tty_dev_read>:
    28e3:	55                   	push   %ebp
    28e4:	89 e5                	mov    %esp,%ebp
    28e6:	83 ec 08             	sub    $0x8,%esp
    28e9:	8b 45 08             	mov    0x8(%ebp),%eax
    28ec:	8b 80 20 04 00 00    	mov    0x420(%eax),%eax
    28f2:	83 ec 0c             	sub    $0xc,%esp
    28f5:	50                   	push   %eax
    28f6:	e8 08 0b 00 00       	call   3403 <is_current_console>
    28fb:	83 c4 10             	add    $0x10,%esp
    28fe:	85 c0                	test   %eax,%eax
    2900:	74 0e                	je     2910 <tty_dev_read+0x2d>
    2902:	83 ec 0c             	sub    $0xc,%esp
    2905:	ff 75 08             	pushl  0x8(%ebp)
    2908:	e8 98 f6 ff ff       	call   1fa5 <keyboard_read>
    290d:	83 c4 10             	add    $0x10,%esp
    2910:	90                   	nop
    2911:	c9                   	leave  
    2912:	c3                   	ret    

00002913 <tty_dev_write>:
    2913:	55                   	push   %ebp
    2914:	89 e5                	mov    %esp,%ebp
    2916:	83 ec 48             	sub    $0x48,%esp
    2919:	e9 2b 02 00 00       	jmp    2b49 <tty_dev_write+0x236>
    291e:	8b 45 08             	mov    0x8(%ebp),%eax
    2921:	8b 80 04 04 00 00    	mov    0x404(%eax),%eax
    2927:	8b 00                	mov    (%eax),%eax
    2929:	88 45 f3             	mov    %al,-0xd(%ebp)
    292c:	8b 45 08             	mov    0x8(%ebp),%eax
    292f:	8b 80 04 04 00 00    	mov    0x404(%eax),%eax
    2935:	8d 50 04             	lea    0x4(%eax),%edx
    2938:	8b 45 08             	mov    0x8(%ebp),%eax
    293b:	89 90 04 04 00 00    	mov    %edx,0x404(%eax)
    2941:	8b 45 08             	mov    0x8(%ebp),%eax
    2944:	8b 80 04 04 00 00    	mov    0x404(%eax),%eax
    294a:	8b 55 08             	mov    0x8(%ebp),%edx
    294d:	81 c2 00 04 00 00    	add    $0x400,%edx
    2953:	39 d0                	cmp    %edx,%eax
    2955:	75 0c                	jne    2963 <tty_dev_write+0x50>
    2957:	8b 55 08             	mov    0x8(%ebp),%edx
    295a:	8b 45 08             	mov    0x8(%ebp),%eax
    295d:	89 90 04 04 00 00    	mov    %edx,0x404(%eax)
    2963:	8b 45 08             	mov    0x8(%ebp),%eax
    2966:	8b 80 08 04 00 00    	mov    0x408(%eax),%eax
    296c:	8d 50 ff             	lea    -0x1(%eax),%edx
    296f:	8b 45 08             	mov    0x8(%ebp),%eax
    2972:	89 90 08 04 00 00    	mov    %edx,0x408(%eax)
    2978:	8b 45 08             	mov    0x8(%ebp),%eax
    297b:	8b 80 18 04 00 00    	mov    0x418(%eax),%eax
    2981:	85 c0                	test   %eax,%eax
    2983:	0f 84 c0 01 00 00    	je     2b49 <tty_dev_write+0x236>
    2989:	0f b6 45 f3          	movzbl -0xd(%ebp),%eax
    298d:	3c 1f                	cmp    $0x1f,%al
    298f:	0f 8e b7 00 00 00    	jle    2a4c <tty_dev_write+0x139>
    2995:	0f b6 45 f3          	movzbl -0xd(%ebp),%eax
    2999:	3c 7f                	cmp    $0x7f,%al
    299b:	0f 84 ab 00 00 00    	je     2a4c <tty_dev_write+0x139>
    29a1:	0f b6 45 f3          	movzbl -0xd(%ebp),%eax
    29a5:	0f be d0             	movsbl %al,%edx
    29a8:	8b 45 08             	mov    0x8(%ebp),%eax
    29ab:	8b 80 20 04 00 00    	mov    0x420(%eax),%eax
    29b1:	83 ec 08             	sub    $0x8,%esp
    29b4:	52                   	push   %edx
    29b5:	50                   	push   %eax
    29b6:	e8 6b 07 00 00       	call   3126 <out_char>
    29bb:	83 c4 10             	add    $0x10,%esp
    29be:	8b 45 08             	mov    0x8(%ebp),%eax
    29c1:	8b 80 14 04 00 00    	mov    0x414(%eax),%eax
    29c7:	85 c0                	test   %eax,%eax
    29c9:	75 1c                	jne    29e7 <tty_dev_write+0xd4>
    29cb:	68 0f 01 00 00       	push   $0x10f
    29d0:	68 24 ce 00 00       	push   $0xce24
    29d5:	68 24 ce 00 00       	push   $0xce24
    29da:	68 e4 ce 00 00       	push   $0xcee4
    29df:	e8 f9 9c 00 00       	call   c6dd <assertion_failure>
    29e4:	83 c4 10             	add    $0x10,%esp
    29e7:	8b 45 08             	mov    0x8(%ebp),%eax
    29ea:	8b 90 14 04 00 00    	mov    0x414(%eax),%edx
    29f0:	8b 45 08             	mov    0x8(%ebp),%eax
    29f3:	8b 80 1c 04 00 00    	mov    0x41c(%eax),%eax
    29f9:	01 d0                	add    %edx,%eax
    29fb:	89 45 f4             	mov    %eax,-0xc(%ebp)
    29fe:	83 ec 08             	sub    $0x8,%esp
    2a01:	8d 45 f3             	lea    -0xd(%ebp),%eax
    2a04:	50                   	push   %eax
    2a05:	6a 00                	push   $0x0
    2a07:	e8 fb 16 00 00       	call   4107 <va2la>
    2a0c:	83 c4 10             	add    $0x10,%esp
    2a0f:	83 ec 04             	sub    $0x4,%esp
    2a12:	6a 01                	push   $0x1
    2a14:	50                   	push   %eax
    2a15:	ff 75 f4             	pushl  -0xc(%ebp)
    2a18:	e8 33 9a 00 00       	call   c450 <memcpy>
    2a1d:	83 c4 10             	add    $0x10,%esp
    2a20:	8b 45 08             	mov    0x8(%ebp),%eax
    2a23:	8b 80 1c 04 00 00    	mov    0x41c(%eax),%eax
    2a29:	8d 50 01             	lea    0x1(%eax),%edx
    2a2c:	8b 45 08             	mov    0x8(%ebp),%eax
    2a2f:	89 90 1c 04 00 00    	mov    %edx,0x41c(%eax)
    2a35:	8b 45 08             	mov    0x8(%ebp),%eax
    2a38:	8b 80 18 04 00 00    	mov    0x418(%eax),%eax
    2a3e:	8d 50 ff             	lea    -0x1(%eax),%edx
    2a41:	8b 45 08             	mov    0x8(%ebp),%eax
    2a44:	89 90 18 04 00 00    	mov    %edx,0x418(%eax)
    2a4a:	eb 5c                	jmp    2aa8 <tty_dev_write+0x195>
    2a4c:	0f b6 45 f3          	movzbl -0xd(%ebp),%eax
    2a50:	3c 08                	cmp    $0x8,%al
    2a52:	75 54                	jne    2aa8 <tty_dev_write+0x195>
    2a54:	8b 45 08             	mov    0x8(%ebp),%eax
    2a57:	8b 80 1c 04 00 00    	mov    0x41c(%eax),%eax
    2a5d:	85 c0                	test   %eax,%eax
    2a5f:	74 47                	je     2aa8 <tty_dev_write+0x195>
    2a61:	0f b6 45 f3          	movzbl -0xd(%ebp),%eax
    2a65:	0f be d0             	movsbl %al,%edx
    2a68:	8b 45 08             	mov    0x8(%ebp),%eax
    2a6b:	8b 80 20 04 00 00    	mov    0x420(%eax),%eax
    2a71:	83 ec 08             	sub    $0x8,%esp
    2a74:	52                   	push   %edx
    2a75:	50                   	push   %eax
    2a76:	e8 ab 06 00 00       	call   3126 <out_char>
    2a7b:	83 c4 10             	add    $0x10,%esp
    2a7e:	8b 45 08             	mov    0x8(%ebp),%eax
    2a81:	8b 80 1c 04 00 00    	mov    0x41c(%eax),%eax
    2a87:	8d 50 ff             	lea    -0x1(%eax),%edx
    2a8a:	8b 45 08             	mov    0x8(%ebp),%eax
    2a8d:	89 90 1c 04 00 00    	mov    %edx,0x41c(%eax)
    2a93:	8b 45 08             	mov    0x8(%ebp),%eax
    2a96:	8b 80 18 04 00 00    	mov    0x418(%eax),%eax
    2a9c:	8d 50 01             	lea    0x1(%eax),%edx
    2a9f:	8b 45 08             	mov    0x8(%ebp),%eax
    2aa2:	89 90 18 04 00 00    	mov    %edx,0x418(%eax)
    2aa8:	0f b6 45 f3          	movzbl -0xd(%ebp),%eax
    2aac:	3c 0a                	cmp    $0xa,%al
    2aae:	74 11                	je     2ac1 <tty_dev_write+0x1ae>
    2ab0:	8b 45 08             	mov    0x8(%ebp),%eax
    2ab3:	8b 80 18 04 00 00    	mov    0x418(%eax),%eax
    2ab9:	85 c0                	test   %eax,%eax
    2abb:	0f 85 88 00 00 00    	jne    2b49 <tty_dev_write+0x236>
    2ac1:	8b 45 08             	mov    0x8(%ebp),%eax
    2ac4:	8b 80 20 04 00 00    	mov    0x420(%eax),%eax
    2aca:	83 ec 08             	sub    $0x8,%esp
    2acd:	6a 0a                	push   $0xa
    2acf:	50                   	push   %eax
    2ad0:	e8 51 06 00 00       	call   3126 <out_char>
    2ad5:	83 c4 10             	add    $0x10,%esp
    2ad8:	8b 45 08             	mov    0x8(%ebp),%eax
    2adb:	8b 80 10 04 00 00    	mov    0x410(%eax),%eax
    2ae1:	83 f8 39             	cmp    $0x39,%eax
    2ae4:	75 1c                	jne    2b02 <tty_dev_write+0x1ef>
    2ae6:	68 20 01 00 00       	push   $0x120
    2aeb:	68 24 ce 00 00       	push   $0xce24
    2af0:	68 24 ce 00 00       	push   $0xce24
    2af5:	68 f5 ce 00 00       	push   $0xcef5
    2afa:	e8 de 9b 00 00       	call   c6dd <assertion_failure>
    2aff:	83 c4 10             	add    $0x10,%esp
    2b02:	c7 45 c4 0d 00 00 00 	movl   $0xd,-0x3c(%ebp)
    2b09:	8b 45 08             	mov    0x8(%ebp),%eax
    2b0c:	8b 80 10 04 00 00    	mov    0x410(%eax),%eax
    2b12:	89 45 d0             	mov    %eax,-0x30(%ebp)
    2b15:	8b 45 08             	mov    0x8(%ebp),%eax
    2b18:	8b 80 1c 04 00 00    	mov    0x41c(%eax),%eax
    2b1e:	89 45 cc             	mov    %eax,-0x34(%ebp)
    2b21:	8b 45 08             	mov    0x8(%ebp),%eax
    2b24:	8b 80 0c 04 00 00    	mov    0x40c(%eax),%eax
    2b2a:	83 ec 04             	sub    $0x4,%esp
    2b2d:	8d 55 c0             	lea    -0x40(%ebp),%edx
    2b30:	52                   	push   %edx
    2b31:	50                   	push   %eax
    2b32:	6a 01                	push   $0x1
    2b34:	e8 8f 99 00 00       	call   c4c8 <send_recv>
    2b39:	83 c4 10             	add    $0x10,%esp
    2b3c:	8b 45 08             	mov    0x8(%ebp),%eax
    2b3f:	c7 80 18 04 00 00 00 	movl   $0x0,0x418(%eax)
    2b46:	00 00 00 
    2b49:	8b 45 08             	mov    0x8(%ebp),%eax
    2b4c:	8b 80 08 04 00 00    	mov    0x408(%eax),%eax
    2b52:	85 c0                	test   %eax,%eax
    2b54:	0f 85 c4 fd ff ff    	jne    291e <tty_dev_write+0xb>
    2b5a:	90                   	nop
    2b5b:	c9                   	leave  
    2b5c:	c3                   	ret    

00002b5d <tty_do_read>:
    2b5d:	55                   	push   %ebp
    2b5e:	89 e5                	mov    %esp,%ebp
    2b60:	83 ec 08             	sub    $0x8,%esp
    2b63:	8b 45 0c             	mov    0xc(%ebp),%eax
    2b66:	8b 10                	mov    (%eax),%edx
    2b68:	8b 45 08             	mov    0x8(%ebp),%eax
    2b6b:	89 90 0c 04 00 00    	mov    %edx,0x40c(%eax)
    2b71:	8b 45 0c             	mov    0xc(%ebp),%eax
    2b74:	8b 50 10             	mov    0x10(%eax),%edx
    2b77:	8b 45 08             	mov    0x8(%ebp),%eax
    2b7a:	89 90 10 04 00 00    	mov    %edx,0x410(%eax)
    2b80:	8b 45 0c             	mov    0xc(%ebp),%eax
    2b83:	8b 50 2c             	mov    0x2c(%eax),%edx
    2b86:	8b 45 08             	mov    0x8(%ebp),%eax
    2b89:	8b 80 10 04 00 00    	mov    0x410(%eax),%eax
    2b8f:	83 ec 08             	sub    $0x8,%esp
    2b92:	52                   	push   %edx
    2b93:	50                   	push   %eax
    2b94:	e8 6e 15 00 00       	call   4107 <va2la>
    2b99:	83 c4 10             	add    $0x10,%esp
    2b9c:	89 c2                	mov    %eax,%edx
    2b9e:	8b 45 08             	mov    0x8(%ebp),%eax
    2ba1:	89 90 14 04 00 00    	mov    %edx,0x414(%eax)
    2ba7:	8b 45 0c             	mov    0xc(%ebp),%eax
    2baa:	8b 50 0c             	mov    0xc(%eax),%edx
    2bad:	8b 45 08             	mov    0x8(%ebp),%eax
    2bb0:	89 90 18 04 00 00    	mov    %edx,0x418(%eax)
    2bb6:	8b 45 08             	mov    0x8(%ebp),%eax
    2bb9:	c7 80 1c 04 00 00 00 	movl   $0x0,0x41c(%eax)
    2bc0:	00 00 00 
    2bc3:	8b 45 0c             	mov    0xc(%ebp),%eax
    2bc6:	c7 40 04 0c 00 00 00 	movl   $0xc,0x4(%eax)
    2bcd:	8b 45 08             	mov    0x8(%ebp),%eax
    2bd0:	8b 80 0c 04 00 00    	mov    0x40c(%eax),%eax
    2bd6:	83 ec 04             	sub    $0x4,%esp
    2bd9:	ff 75 0c             	pushl  0xc(%ebp)
    2bdc:	50                   	push   %eax
    2bdd:	6a 01                	push   $0x1
    2bdf:	e8 e4 98 00 00       	call   c4c8 <send_recv>
    2be4:	83 c4 10             	add    $0x10,%esp
    2be7:	90                   	nop
    2be8:	c9                   	leave  
    2be9:	c3                   	ret    

00002bea <tty_do_write>:
    2bea:	55                   	push   %ebp
    2beb:	89 e5                	mov    %esp,%ebp
    2bed:	83 ec 28             	sub    $0x28,%esp
    2bf0:	8b 45 0c             	mov    0xc(%ebp),%eax
    2bf3:	8b 50 2c             	mov    0x2c(%eax),%edx
    2bf6:	8b 45 0c             	mov    0xc(%ebp),%eax
    2bf9:	8b 40 10             	mov    0x10(%eax),%eax
    2bfc:	83 ec 08             	sub    $0x8,%esp
    2bff:	52                   	push   %edx
    2c00:	50                   	push   %eax
    2c01:	e8 01 15 00 00       	call   4107 <va2la>
    2c06:	83 c4 10             	add    $0x10,%esp
    2c09:	89 45 f4             	mov    %eax,-0xc(%ebp)
    2c0c:	8b 45 0c             	mov    0xc(%ebp),%eax
    2c0f:	8b 40 0c             	mov    0xc(%eax),%eax
    2c12:	89 45 f0             	mov    %eax,-0x10(%ebp)
    2c15:	eb 78                	jmp    2c8f <tty_do_write+0xa5>
    2c17:	b8 02 00 00 00       	mov    $0x2,%eax
    2c1c:	83 7d f0 02          	cmpl   $0x2,-0x10(%ebp)
    2c20:	0f 4e 45 f0          	cmovle -0x10(%ebp),%eax
    2c24:	89 45 e8             	mov    %eax,-0x18(%ebp)
    2c27:	83 ec 08             	sub    $0x8,%esp
    2c2a:	8d 45 e6             	lea    -0x1a(%ebp),%eax
    2c2d:	50                   	push   %eax
    2c2e:	6a 00                	push   $0x0
    2c30:	e8 d2 14 00 00       	call   4107 <va2la>
    2c35:	83 c4 10             	add    $0x10,%esp
    2c38:	83 ec 04             	sub    $0x4,%esp
    2c3b:	ff 75 e8             	pushl  -0x18(%ebp)
    2c3e:	ff 75 f4             	pushl  -0xc(%ebp)
    2c41:	50                   	push   %eax
    2c42:	e8 09 98 00 00       	call   c450 <memcpy>
    2c47:	83 c4 10             	add    $0x10,%esp
    2c4a:	c7 45 ec 00 00 00 00 	movl   $0x0,-0x14(%ebp)
    2c51:	eb 28                	jmp    2c7b <tty_do_write+0x91>
    2c53:	8d 55 e6             	lea    -0x1a(%ebp),%edx
    2c56:	8b 45 ec             	mov    -0x14(%ebp),%eax
    2c59:	01 d0                	add    %edx,%eax
    2c5b:	0f b6 00             	movzbl (%eax),%eax
    2c5e:	0f be d0             	movsbl %al,%edx
    2c61:	8b 45 08             	mov    0x8(%ebp),%eax
    2c64:	8b 80 20 04 00 00    	mov    0x420(%eax),%eax
    2c6a:	83 ec 08             	sub    $0x8,%esp
    2c6d:	52                   	push   %edx
    2c6e:	50                   	push   %eax
    2c6f:	e8 b2 04 00 00       	call   3126 <out_char>
    2c74:	83 c4 10             	add    $0x10,%esp
    2c77:	83 45 ec 01          	addl   $0x1,-0x14(%ebp)
    2c7b:	8b 45 ec             	mov    -0x14(%ebp),%eax
    2c7e:	3b 45 e8             	cmp    -0x18(%ebp),%eax
    2c81:	7c d0                	jl     2c53 <tty_do_write+0x69>
    2c83:	8b 45 e8             	mov    -0x18(%ebp),%eax
    2c86:	29 45 f0             	sub    %eax,-0x10(%ebp)
    2c89:	8b 45 e8             	mov    -0x18(%ebp),%eax
    2c8c:	01 45 f4             	add    %eax,-0xc(%ebp)
    2c8f:	83 7d f0 00          	cmpl   $0x0,-0x10(%ebp)
    2c93:	75 82                	jne    2c17 <tty_do_write+0x2d>
    2c95:	8b 45 0c             	mov    0xc(%ebp),%eax
    2c98:	c7 40 04 12 00 00 00 	movl   $0x12,0x4(%eax)
    2c9f:	8b 45 0c             	mov    0xc(%ebp),%eax
    2ca2:	8b 00                	mov    (%eax),%eax
    2ca4:	83 ec 04             	sub    $0x4,%esp
    2ca7:	ff 75 0c             	pushl  0xc(%ebp)
    2caa:	50                   	push   %eax
    2cab:	6a 01                	push   $0x1
    2cad:	e8 16 98 00 00       	call   c4c8 <send_recv>
    2cb2:	83 c4 10             	add    $0x10,%esp
    2cb5:	90                   	nop
    2cb6:	c9                   	leave  
    2cb7:	c3                   	ret    

00002cb8 <sys_printx>:
    2cb8:	55                   	push   %ebp
    2cb9:	89 e5                	mov    %esp,%ebp
    2cbb:	83 ec 48             	sub    $0x48,%esp
    2cbe:	c7 45 bf 3f 20 6b 5f 	movl   $0x5f6b203f,-0x41(%ebp)
    2cc5:	c7 45 c3 72 65 65 6e 	movl   $0x6e656572,-0x3d(%ebp)
    2ccc:	c7 45 c7 74 65 72 20 	movl   $0x20726574,-0x39(%ebp)
    2cd3:	c7 45 cb 69 73 20 69 	movl   $0x69207369,-0x35(%ebp)
    2cda:	c7 45 cf 6e 63 6f 72 	movl   $0x726f636e,-0x31(%ebp)
    2ce1:	c7 45 d3 72 65 63 74 	movl   $0x74636572,-0x2d(%ebp)
    2ce8:	c7 45 d7 20 66 6f 72 	movl   $0x726f6620,-0x29(%ebp)
    2cef:	c7 45 db 20 75 6e 6b 	movl   $0x6b6e7520,-0x25(%ebp)
    2cf6:	c7 45 df 6e 6f 77 6e 	movl   $0x6e776f6e,-0x21(%ebp)
    2cfd:	c7 45 e3 20 72 65 61 	movl   $0x61657220,-0x1d(%ebp)
    2d04:	c7 45 e7 73 6f 6e 00 	movl   $0x6e6f73,-0x19(%ebp)
    2d0b:	c6 45 bf 02          	movb   $0x2,-0x41(%ebp)
    2d0f:	a1 20 84 03 00       	mov    0x38420,%eax
    2d14:	85 c0                	test   %eax,%eax
    2d16:	75 25                	jne    2d3d <sys_printx+0x85>
    2d18:	8b 45 14             	mov    0x14(%ebp),%eax
    2d1b:	2d a0 a4 03 00       	sub    $0x3a4a0,%eax
    2d20:	c1 f8 03             	sar    $0x3,%eax
    2d23:	69 c0 fb fa fa fa    	imul   $0xfafafafb,%eax,%eax
    2d29:	83 ec 08             	sub    $0x8,%esp
    2d2c:	ff 75 10             	pushl  0x10(%ebp)
    2d2f:	50                   	push   %eax
    2d30:	e8 d2 13 00 00       	call   4107 <va2la>
    2d35:	83 c4 10             	add    $0x10,%esp
    2d38:	89 45 f4             	mov    %eax,-0xc(%ebp)
    2d3b:	eb 17                	jmp    2d54 <sys_printx+0x9c>
    2d3d:	a1 20 84 03 00       	mov    0x38420,%eax
    2d42:	85 c0                	test   %eax,%eax
    2d44:	74 08                	je     2d4e <sys_printx+0x96>
    2d46:	8b 45 10             	mov    0x10(%ebp),%eax
    2d49:	89 45 f4             	mov    %eax,-0xc(%ebp)
    2d4c:	eb 06                	jmp    2d54 <sys_printx+0x9c>
    2d4e:	8d 45 bf             	lea    -0x41(%ebp),%eax
    2d51:	89 45 f4             	mov    %eax,-0xc(%ebp)
    2d54:	8b 45 f4             	mov    -0xc(%ebp),%eax
    2d57:	0f b6 00             	movzbl (%eax),%eax
    2d5a:	3c 02                	cmp    $0x2,%al
    2d5c:	74 1e                	je     2d7c <sys_printx+0xc4>
    2d5e:	8b 45 f4             	mov    -0xc(%ebp),%eax
    2d61:	0f b6 00             	movzbl (%eax),%eax
    2d64:	3c 03                	cmp    $0x3,%al
    2d66:	0f 85 cd 00 00 00    	jne    2e39 <sys_printx+0x181>
    2d6c:	a1 80 a4 03 00       	mov    0x3a480,%eax
    2d71:	3d 98 ac 03 00       	cmp    $0x3ac98,%eax
    2d76:	0f 83 bd 00 00 00    	jae    2e39 <sys_printx+0x181>
    2d7c:	e8 5c 39 00 00       	call   66dd <disable_int>
    2d81:	c7 45 f0 00 80 0b 00 	movl   $0xb8000,-0x10(%ebp)
    2d88:	8b 45 f4             	mov    -0xc(%ebp),%eax
    2d8b:	83 c0 01             	add    $0x1,%eax
    2d8e:	89 45 ec             	mov    %eax,-0x14(%ebp)
    2d91:	eb 76                	jmp    2e09 <sys_printx+0x151>
    2d93:	8b 55 ec             	mov    -0x14(%ebp),%edx
    2d96:	8d 42 01             	lea    0x1(%edx),%eax
    2d99:	89 45 ec             	mov    %eax,-0x14(%ebp)
    2d9c:	8b 45 f0             	mov    -0x10(%ebp),%eax
    2d9f:	8d 48 01             	lea    0x1(%eax),%ecx
    2da2:	89 4d f0             	mov    %ecx,-0x10(%ebp)
    2da5:	0f b6 12             	movzbl (%edx),%edx
    2da8:	88 10                	mov    %dl,(%eax)
    2daa:	8b 45 f0             	mov    -0x10(%ebp),%eax
    2dad:	8d 50 01             	lea    0x1(%eax),%edx
    2db0:	89 55 f0             	mov    %edx,-0x10(%ebp)
    2db3:	c6 00 1c             	movb   $0x1c,(%eax)
    2db6:	8b 45 ec             	mov    -0x14(%ebp),%eax
    2db9:	0f b6 00             	movzbl (%eax),%eax
    2dbc:	84 c0                	test   %al,%al
    2dbe:	75 49                	jne    2e09 <sys_printx+0x151>
    2dc0:	eb 10                	jmp    2dd2 <sys_printx+0x11a>
    2dc2:	83 45 f0 01          	addl   $0x1,-0x10(%ebp)
    2dc6:	8b 45 f0             	mov    -0x10(%ebp),%eax
    2dc9:	8d 50 01             	lea    0x1(%eax),%edx
    2dcc:	89 55 f0             	mov    %edx,-0x10(%ebp)
    2dcf:	c6 00 08             	movb   $0x8,(%eax)
    2dd2:	8b 45 f0             	mov    -0x10(%ebp),%eax
    2dd5:	8d 88 00 80 f4 ff    	lea    -0xb8000(%eax),%ecx
    2ddb:	ba 67 66 66 66       	mov    $0x66666667,%edx
    2de0:	89 c8                	mov    %ecx,%eax
    2de2:	f7 ea                	imul   %edx
    2de4:	c1 fa 09             	sar    $0x9,%edx
    2de7:	89 c8                	mov    %ecx,%eax
    2de9:	c1 f8 1f             	sar    $0x1f,%eax
    2dec:	29 c2                	sub    %eax,%edx
    2dee:	89 d0                	mov    %edx,%eax
    2df0:	c1 e0 02             	shl    $0x2,%eax
    2df3:	01 d0                	add    %edx,%eax
    2df5:	c1 e0 08             	shl    $0x8,%eax
    2df8:	29 c1                	sub    %eax,%ecx
    2dfa:	89 ca                	mov    %ecx,%edx
    2dfc:	85 d2                	test   %edx,%edx
    2dfe:	75 c2                	jne    2dc2 <sys_printx+0x10a>
    2e00:	8b 45 f4             	mov    -0xc(%ebp),%eax
    2e03:	83 c0 01             	add    $0x1,%eax
    2e06:	89 45 ec             	mov    %eax,-0x14(%ebp)
    2e09:	81 7d f0 ff ff 0b 00 	cmpl   $0xbffff,-0x10(%ebp)
    2e10:	76 81                	jbe    2d93 <sys_printx+0xdb>
    2e12:	f4                   	hlt    
    2e13:	eb 24                	jmp    2e39 <sys_printx+0x181>
    2e15:	80 7d eb 02          	cmpb   $0x2,-0x15(%ebp)
    2e19:	74 1e                	je     2e39 <sys_printx+0x181>
    2e1b:	80 7d eb 03          	cmpb   $0x3,-0x15(%ebp)
    2e1f:	75 02                	jne    2e23 <sys_printx+0x16b>
    2e21:	eb 16                	jmp    2e39 <sys_printx+0x181>
    2e23:	0f be 55 eb          	movsbl -0x15(%ebp),%edx
    2e27:	a1 80 8c 03 00       	mov    0x38c80,%eax
    2e2c:	83 ec 08             	sub    $0x8,%esp
    2e2f:	52                   	push   %edx
    2e30:	50                   	push   %eax
    2e31:	e8 f0 02 00 00       	call   3126 <out_char>
    2e36:	83 c4 10             	add    $0x10,%esp
    2e39:	8b 45 f4             	mov    -0xc(%ebp),%eax
    2e3c:	8d 50 01             	lea    0x1(%eax),%edx
    2e3f:	89 55 f4             	mov    %edx,-0xc(%ebp)
    2e42:	0f b6 00             	movzbl (%eax),%eax
    2e45:	88 45 eb             	mov    %al,-0x15(%ebp)
    2e48:	80 7d eb 00          	cmpb   $0x0,-0x15(%ebp)
    2e4c:	75 c7                	jne    2e15 <sys_printx+0x15d>
    2e4e:	b8 00 00 00 00       	mov    $0x0,%eax
    2e53:	c9                   	leave  
    2e54:	c3                   	ret    

00002e55 <dump_tty_buf>:
    2e55:	55                   	push   %ebp
    2e56:	89 e5                	mov    %esp,%ebp
    2e58:	83 ec 18             	sub    $0x18,%esp
    2e5b:	c7 45 f4 84 8c 03 00 	movl   $0x38c84,-0xc(%ebp)
    2e62:	83 ec 0c             	sub    $0xc,%esp
    2e65:	68 20 26 01 00       	push   $0x12620
    2e6a:	e8 96 92 00 00       	call   c105 <printl>
    2e6f:	83 c4 10             	add    $0x10,%esp
    2e72:	8b 45 f4             	mov    -0xc(%ebp),%eax
    2e75:	8b 90 00 04 00 00    	mov    0x400(%eax),%edx
    2e7b:	8b 45 f4             	mov    -0xc(%ebp),%eax
    2e7e:	29 c2                	sub    %eax,%edx
    2e80:	89 d0                	mov    %edx,%eax
    2e82:	c1 f8 02             	sar    $0x2,%eax
    2e85:	83 ec 08             	sub    $0x8,%esp
    2e88:	50                   	push   %eax
    2e89:	68 10 cf 00 00       	push   $0xcf10
    2e8e:	e8 72 92 00 00       	call   c105 <printl>
    2e93:	83 c4 10             	add    $0x10,%esp
    2e96:	8b 45 f4             	mov    -0xc(%ebp),%eax
    2e99:	8b 90 04 04 00 00    	mov    0x404(%eax),%edx
    2e9f:	8b 45 f4             	mov    -0xc(%ebp),%eax
    2ea2:	29 c2                	sub    %eax,%edx
    2ea4:	89 d0                	mov    %edx,%eax
    2ea6:	c1 f8 02             	sar    $0x2,%eax
    2ea9:	83 ec 08             	sub    $0x8,%esp
    2eac:	50                   	push   %eax
    2ead:	68 1a cf 00 00       	push   $0xcf1a
    2eb2:	e8 4e 92 00 00       	call   c105 <printl>
    2eb7:	83 c4 10             	add    $0x10,%esp
    2eba:	8b 45 f4             	mov    -0xc(%ebp),%eax
    2ebd:	8b 80 08 04 00 00    	mov    0x408(%eax),%eax
    2ec3:	83 ec 08             	sub    $0x8,%esp
    2ec6:	50                   	push   %eax
    2ec7:	68 24 cf 00 00       	push   $0xcf24
    2ecc:	e8 34 92 00 00       	call   c105 <printl>
    2ed1:	83 c4 10             	add    $0x10,%esp
    2ed4:	8b 45 f4             	mov    -0xc(%ebp),%eax
    2ed7:	8b 80 0c 04 00 00    	mov    0x40c(%eax),%eax
    2edd:	89 45 f0             	mov    %eax,-0x10(%ebp)
    2ee0:	8b 45 f0             	mov    -0x10(%ebp),%eax
    2ee3:	69 c0 98 01 00 00    	imul   $0x198,%eax,%eax
    2ee9:	83 c0 60             	add    $0x60,%eax
    2eec:	05 a0 a4 03 00       	add    $0x3a4a0,%eax
    2ef1:	83 c0 04             	add    $0x4,%eax
    2ef4:	83 ec 04             	sub    $0x4,%esp
    2ef7:	ff 75 f0             	pushl  -0x10(%ebp)
    2efa:	50                   	push   %eax
    2efb:	68 2d cf 00 00       	push   $0xcf2d
    2f00:	e8 00 92 00 00       	call   c105 <printl>
    2f05:	83 c4 10             	add    $0x10,%esp
    2f08:	8b 45 f4             	mov    -0xc(%ebp),%eax
    2f0b:	8b 80 10 04 00 00    	mov    0x410(%eax),%eax
    2f11:	89 45 f0             	mov    %eax,-0x10(%ebp)
    2f14:	8b 45 f0             	mov    -0x10(%ebp),%eax
    2f17:	69 c0 98 01 00 00    	imul   $0x198,%eax,%eax
    2f1d:	83 c0 60             	add    $0x60,%eax
    2f20:	05 a0 a4 03 00       	add    $0x3a4a0,%eax
    2f25:	83 c0 04             	add    $0x4,%eax
    2f28:	83 ec 04             	sub    $0x4,%esp
    2f2b:	ff 75 f0             	pushl  -0x10(%ebp)
    2f2e:	50                   	push   %eax
    2f2f:	68 2d cf 00 00       	push   $0xcf2d
    2f34:	e8 cc 91 00 00       	call   c105 <printl>
    2f39:	83 c4 10             	add    $0x10,%esp
    2f3c:	8b 45 f4             	mov    -0xc(%ebp),%eax
    2f3f:	8b 80 14 04 00 00    	mov    0x414(%eax),%eax
    2f45:	83 ec 08             	sub    $0x8,%esp
    2f48:	50                   	push   %eax
    2f49:	68 3e cf 00 00       	push   $0xcf3e
    2f4e:	e8 b2 91 00 00       	call   c105 <printl>
    2f53:	83 c4 10             	add    $0x10,%esp
    2f56:	8b 45 f4             	mov    -0xc(%ebp),%eax
    2f59:	8b 80 18 04 00 00    	mov    0x418(%eax),%eax
    2f5f:	83 ec 08             	sub    $0x8,%esp
    2f62:	50                   	push   %eax
    2f63:	68 4b cf 00 00       	push   $0xcf4b
    2f68:	e8 98 91 00 00       	call   c105 <printl>
    2f6d:	83 c4 10             	add    $0x10,%esp
    2f70:	8b 45 f4             	mov    -0xc(%ebp),%eax
    2f73:	8b 80 1c 04 00 00    	mov    0x41c(%eax),%eax
    2f79:	83 ec 08             	sub    $0x8,%esp
    2f7c:	50                   	push   %eax
    2f7d:	68 59 cf 00 00       	push   $0xcf59
    2f82:	e8 7e 91 00 00       	call   c105 <printl>
    2f87:	83 c4 10             	add    $0x10,%esp
    2f8a:	83 ec 0c             	sub    $0xc,%esp
    2f8d:	68 68 cf 00 00       	push   $0xcf68
    2f92:	e8 6e 91 00 00       	call   c105 <printl>
    2f97:	83 c4 10             	add    $0x10,%esp
    2f9a:	83 ec 08             	sub    $0x8,%esp
    2f9d:	68 8a cf 00 00       	push   $0xcf8a
    2fa2:	68 20 26 01 00       	push   $0x12620
    2fa7:	e8 ee 94 00 00       	call   c49a <strcpy>
    2fac:	83 c4 10             	add    $0x10,%esp
    2faf:	90                   	nop
    2fb0:	c9                   	leave  
    2fb1:	c3                   	ret    

00002fb2 <init_screen>:
    2fb2:	55                   	push   %ebp
    2fb3:	89 e5                	mov    %esp,%ebp
    2fb5:	83 ec 28             	sub    $0x28,%esp
    2fb8:	8b 45 08             	mov    0x8(%ebp),%eax
    2fbb:	2d 60 88 03 00       	sub    $0x38860,%eax
    2fc0:	c1 f8 02             	sar    $0x2,%eax
    2fc3:	69 c0 39 dd 03 1c    	imul   $0x1c03dd39,%eax,%eax
    2fc9:	89 45 f0             	mov    %eax,-0x10(%ebp)
    2fcc:	8b 55 f0             	mov    -0x10(%ebp),%edx
    2fcf:	89 d0                	mov    %edx,%eax
    2fd1:	c1 e0 02             	shl    $0x2,%eax
    2fd4:	01 d0                	add    %edx,%eax
    2fd6:	c1 e0 02             	shl    $0x2,%eax
    2fd9:	8d 90 00 a4 03 00    	lea    0x3a400(%eax),%edx
    2fdf:	8b 45 08             	mov    0x8(%ebp),%eax
    2fe2:	89 90 20 04 00 00    	mov    %edx,0x420(%eax)
    2fe8:	c7 45 ec 00 40 00 00 	movl   $0x4000,-0x14(%ebp)
    2fef:	8b 4d ec             	mov    -0x14(%ebp),%ecx
    2ff2:	ba 56 55 55 55       	mov    $0x55555556,%edx
    2ff7:	89 c8                	mov    %ecx,%eax
    2ff9:	f7 ea                	imul   %edx
    2ffb:	89 c8                	mov    %ecx,%eax
    2ffd:	c1 f8 1f             	sar    $0x1f,%eax
    3000:	29 c2                	sub    %eax,%edx
    3002:	89 d0                	mov    %edx,%eax
    3004:	89 45 e8             	mov    %eax,-0x18(%ebp)
    3007:	8b 45 f0             	mov    -0x10(%ebp),%eax
    300a:	0f af 45 e8          	imul   -0x18(%ebp),%eax
    300e:	89 c2                	mov    %eax,%edx
    3010:	8b 45 08             	mov    0x8(%ebp),%eax
    3013:	8b 80 20 04 00 00    	mov    0x420(%eax),%eax
    3019:	89 50 04             	mov    %edx,0x4(%eax)
    301c:	8b 4d e8             	mov    -0x18(%ebp),%ecx
    301f:	ba 67 66 66 66       	mov    $0x66666667,%edx
    3024:	89 c8                	mov    %ecx,%eax
    3026:	f7 ea                	imul   %edx
    3028:	c1 fa 05             	sar    $0x5,%edx
    302b:	89 c8                	mov    %ecx,%eax
    302d:	c1 f8 1f             	sar    $0x1f,%eax
    3030:	29 c2                	sub    %eax,%edx
    3032:	89 d0                	mov    %edx,%eax
    3034:	c1 e0 02             	shl    $0x2,%eax
    3037:	01 d0                	add    %edx,%eax
    3039:	c1 e0 04             	shl    $0x4,%eax
    303c:	89 c2                	mov    %eax,%edx
    303e:	8b 45 08             	mov    0x8(%ebp),%eax
    3041:	8b 80 20 04 00 00    	mov    0x420(%eax),%eax
    3047:	89 50 08             	mov    %edx,0x8(%eax)
    304a:	8b 45 08             	mov    0x8(%ebp),%eax
    304d:	8b 90 20 04 00 00    	mov    0x420(%eax),%edx
    3053:	8b 45 08             	mov    0x8(%ebp),%eax
    3056:	8b 80 20 04 00 00    	mov    0x420(%eax),%eax
    305c:	8b 52 04             	mov    0x4(%edx),%edx
    305f:	89 10                	mov    %edx,(%eax)
    3061:	8b 55 08             	mov    0x8(%ebp),%edx
    3064:	8b 92 20 04 00 00    	mov    0x420(%edx),%edx
    306a:	8b 00                	mov    (%eax),%eax
    306c:	89 42 0c             	mov    %eax,0xc(%edx)
    306f:	8b 45 08             	mov    0x8(%ebp),%eax
    3072:	8b 80 20 04 00 00    	mov    0x420(%eax),%eax
    3078:	c7 40 10 00 00 00 00 	movl   $0x0,0x10(%eax)
    307f:	83 7d f0 00          	cmpl   $0x0,-0x10(%ebp)
    3083:	75 28                	jne    30ad <init_screen+0xfb>
    3085:	a1 a4 99 03 00       	mov    0x399a4,%eax
    308a:	89 c2                	mov    %eax,%edx
    308c:	c1 ea 1f             	shr    $0x1f,%edx
    308f:	01 d0                	add    %edx,%eax
    3091:	d1 f8                	sar    %eax
    3093:	89 c2                	mov    %eax,%edx
    3095:	8b 45 08             	mov    0x8(%ebp),%eax
    3098:	8b 80 20 04 00 00    	mov    0x420(%eax),%eax
    309e:	89 50 0c             	mov    %edx,0xc(%eax)
    30a1:	c7 05 a4 99 03 00 00 	movl   $0x0,0x399a4
    30a8:	00 00 00 
    30ab:	eb 5e                	jmp    310b <init_screen+0x159>
    30ad:	c7 45 de 5b 54 54 59 	movl   $0x5954545b,-0x22(%ebp)
    30b4:	c7 45 e2 20 23 3f 5d 	movl   $0x5d3f2320,-0x1e(%ebp)
    30bb:	66 c7 45 e6 0a 00    	movw   $0xa,-0x1a(%ebp)
    30c1:	8d 45 de             	lea    -0x22(%ebp),%eax
    30c4:	89 45 f4             	mov    %eax,-0xc(%ebp)
    30c7:	eb 38                	jmp    3101 <init_screen+0x14f>
    30c9:	8b 45 f4             	mov    -0xc(%ebp),%eax
    30cc:	0f b6 00             	movzbl (%eax),%eax
    30cf:	3c 3f                	cmp    $0x3f,%al
    30d1:	75 0b                	jne    30de <init_screen+0x12c>
    30d3:	8b 45 f0             	mov    -0x10(%ebp),%eax
    30d6:	83 c0 30             	add    $0x30,%eax
    30d9:	0f be c0             	movsbl %al,%eax
    30dc:	eb 09                	jmp    30e7 <init_screen+0x135>
    30de:	8b 45 f4             	mov    -0xc(%ebp),%eax
    30e1:	0f b6 00             	movzbl (%eax),%eax
    30e4:	0f be c0             	movsbl %al,%eax
    30e7:	8b 55 08             	mov    0x8(%ebp),%edx
    30ea:	8b 92 20 04 00 00    	mov    0x420(%edx),%edx
    30f0:	83 ec 08             	sub    $0x8,%esp
    30f3:	50                   	push   %eax
    30f4:	52                   	push   %edx
    30f5:	e8 2c 00 00 00       	call   3126 <out_char>
    30fa:	83 c4 10             	add    $0x10,%esp
    30fd:	83 45 f4 01          	addl   $0x1,-0xc(%ebp)
    3101:	8b 45 f4             	mov    -0xc(%ebp),%eax
    3104:	0f b6 00             	movzbl (%eax),%eax
    3107:	84 c0                	test   %al,%al
    3109:	75 be                	jne    30c9 <init_screen+0x117>
    310b:	8b 45 08             	mov    0x8(%ebp),%eax
    310e:	8b 80 20 04 00 00    	mov    0x420(%eax),%eax
    3114:	8b 40 0c             	mov    0xc(%eax),%eax
    3117:	83 ec 0c             	sub    $0xc,%esp
    311a:	50                   	push   %eax
    311b:	e8 06 03 00 00       	call   3426 <set_cursor>
    3120:	83 c4 10             	add    $0x10,%esp
    3123:	90                   	nop
    3124:	c9                   	leave  
    3125:	c3                   	ret    

00003126 <out_char>:
    3126:	55                   	push   %ebp
    3127:	89 e5                	mov    %esp,%ebp
    3129:	83 ec 28             	sub    $0x28,%esp
    312c:	8b 45 0c             	mov    0xc(%ebp),%eax
    312f:	88 45 e4             	mov    %al,-0x1c(%ebp)
    3132:	8b 45 08             	mov    0x8(%ebp),%eax
    3135:	8b 40 0c             	mov    0xc(%eax),%eax
    3138:	05 00 c0 05 00       	add    $0x5c000,%eax
    313d:	01 c0                	add    %eax,%eax
    313f:	89 45 f4             	mov    %eax,-0xc(%ebp)
    3142:	8b 45 08             	mov    0x8(%ebp),%eax
    3145:	8b 50 0c             	mov    0xc(%eax),%edx
    3148:	8b 45 08             	mov    0x8(%ebp),%eax
    314b:	8b 40 04             	mov    0x4(%eax),%eax
    314e:	29 c2                	sub    %eax,%edx
    3150:	8b 45 08             	mov    0x8(%ebp),%eax
    3153:	8b 40 08             	mov    0x8(%eax),%eax
    3156:	39 c2                	cmp    %eax,%edx
    3158:	72 19                	jb     3173 <out_char+0x4d>
    315a:	6a 59                	push   $0x59
    315c:	68 8c cf 00 00       	push   $0xcf8c
    3161:	68 8c cf 00 00       	push   $0xcf8c
    3166:	68 a0 cf 00 00       	push   $0xcfa0
    316b:	e8 6d 95 00 00       	call   c6dd <assertion_failure>
    3170:	83 c4 10             	add    $0x10,%esp
    3173:	8b 45 08             	mov    0x8(%ebp),%eax
    3176:	8b 50 0c             	mov    0xc(%eax),%edx
    3179:	8b 45 08             	mov    0x8(%ebp),%eax
    317c:	8b 40 04             	mov    0x4(%eax),%eax
    317f:	89 d1                	mov    %edx,%ecx
    3181:	29 c1                	sub    %eax,%ecx
    3183:	ba cd cc cc cc       	mov    $0xcccccccd,%edx
    3188:	89 c8                	mov    %ecx,%eax
    318a:	f7 e2                	mul    %edx
    318c:	c1 ea 06             	shr    $0x6,%edx
    318f:	89 d0                	mov    %edx,%eax
    3191:	c1 e0 02             	shl    $0x2,%eax
    3194:	01 d0                	add    %edx,%eax
    3196:	c1 e0 04             	shl    $0x4,%eax
    3199:	29 c1                	sub    %eax,%ecx
    319b:	89 ca                	mov    %ecx,%edx
    319d:	89 55 f0             	mov    %edx,-0x10(%ebp)
    31a0:	8b 45 08             	mov    0x8(%ebp),%eax
    31a3:	8b 50 0c             	mov    0xc(%eax),%edx
    31a6:	8b 45 08             	mov    0x8(%ebp),%eax
    31a9:	8b 40 04             	mov    0x4(%eax),%eax
    31ac:	29 c2                	sub    %eax,%edx
    31ae:	89 d0                	mov    %edx,%eax
    31b0:	ba cd cc cc cc       	mov    $0xcccccccd,%edx
    31b5:	f7 e2                	mul    %edx
    31b7:	89 d0                	mov    %edx,%eax
    31b9:	c1 e8 06             	shr    $0x6,%eax
    31bc:	89 45 ec             	mov    %eax,-0x14(%ebp)
    31bf:	0f be 45 e4          	movsbl -0x1c(%ebp),%eax
    31c3:	83 f8 08             	cmp    $0x8,%eax
    31c6:	74 26                	je     31ee <out_char+0xc8>
    31c8:	83 f8 0a             	cmp    $0xa,%eax
    31cb:	75 54                	jne    3221 <out_char+0xfb>
    31cd:	8b 45 08             	mov    0x8(%ebp),%eax
    31d0:	8b 48 04             	mov    0x4(%eax),%ecx
    31d3:	8b 45 ec             	mov    -0x14(%ebp),%eax
    31d6:	8d 50 01             	lea    0x1(%eax),%edx
    31d9:	89 d0                	mov    %edx,%eax
    31db:	c1 e0 02             	shl    $0x2,%eax
    31de:	01 d0                	add    %edx,%eax
    31e0:	c1 e0 04             	shl    $0x4,%eax
    31e3:	8d 14 01             	lea    (%ecx,%eax,1),%edx
    31e6:	8b 45 08             	mov    0x8(%ebp),%eax
    31e9:	89 50 0c             	mov    %edx,0xc(%eax)
    31ec:	eb 60                	jmp    324e <out_char+0x128>
    31ee:	8b 45 08             	mov    0x8(%ebp),%eax
    31f1:	8b 50 0c             	mov    0xc(%eax),%edx
    31f4:	8b 45 08             	mov    0x8(%ebp),%eax
    31f7:	8b 40 04             	mov    0x4(%eax),%eax
    31fa:	39 c2                	cmp    %eax,%edx
    31fc:	76 4f                	jbe    324d <out_char+0x127>
    31fe:	8b 45 08             	mov    0x8(%ebp),%eax
    3201:	8b 40 0c             	mov    0xc(%eax),%eax
    3204:	8d 50 ff             	lea    -0x1(%eax),%edx
    3207:	8b 45 08             	mov    0x8(%ebp),%eax
    320a:	89 50 0c             	mov    %edx,0xc(%eax)
    320d:	8b 45 f4             	mov    -0xc(%ebp),%eax
    3210:	83 e8 02             	sub    $0x2,%eax
    3213:	c6 00 20             	movb   $0x20,(%eax)
    3216:	8b 45 f4             	mov    -0xc(%ebp),%eax
    3219:	83 e8 01             	sub    $0x1,%eax
    321c:	c6 00 07             	movb   $0x7,(%eax)
    321f:	eb 2c                	jmp    324d <out_char+0x127>
    3221:	8b 45 f4             	mov    -0xc(%ebp),%eax
    3224:	8d 50 01             	lea    0x1(%eax),%edx
    3227:	89 55 f4             	mov    %edx,-0xc(%ebp)
    322a:	0f b6 55 e4          	movzbl -0x1c(%ebp),%edx
    322e:	88 10                	mov    %dl,(%eax)
    3230:	8b 45 f4             	mov    -0xc(%ebp),%eax
    3233:	8d 50 01             	lea    0x1(%eax),%edx
    3236:	89 55 f4             	mov    %edx,-0xc(%ebp)
    3239:	c6 00 07             	movb   $0x7,(%eax)
    323c:	8b 45 08             	mov    0x8(%ebp),%eax
    323f:	8b 40 0c             	mov    0xc(%eax),%eax
    3242:	8d 50 01             	lea    0x1(%eax),%edx
    3245:	8b 45 08             	mov    0x8(%ebp),%eax
    3248:	89 50 0c             	mov    %edx,0xc(%eax)
    324b:	eb 01                	jmp    324e <out_char+0x128>
    324d:	90                   	nop
    324e:	8b 45 08             	mov    0x8(%ebp),%eax
    3251:	8b 50 0c             	mov    0xc(%eax),%edx
    3254:	8b 45 08             	mov    0x8(%ebp),%eax
    3257:	8b 40 04             	mov    0x4(%eax),%eax
    325a:	29 c2                	sub    %eax,%edx
    325c:	8b 45 08             	mov    0x8(%ebp),%eax
    325f:	8b 40 08             	mov    0x8(%eax),%eax
    3262:	39 c2                	cmp    %eax,%edx
    3264:	0f 82 d1 00 00 00    	jb     333b <out_char+0x215>
    326a:	8b 45 08             	mov    0x8(%ebp),%eax
    326d:	8b 50 0c             	mov    0xc(%eax),%edx
    3270:	8b 45 08             	mov    0x8(%ebp),%eax
    3273:	8b 40 04             	mov    0x4(%eax),%eax
    3276:	89 d1                	mov    %edx,%ecx
    3278:	29 c1                	sub    %eax,%ecx
    327a:	ba cd cc cc cc       	mov    $0xcccccccd,%edx
    327f:	89 c8                	mov    %ecx,%eax
    3281:	f7 e2                	mul    %edx
    3283:	c1 ea 06             	shr    $0x6,%edx
    3286:	89 d0                	mov    %edx,%eax
    3288:	c1 e0 02             	shl    $0x2,%eax
    328b:	01 d0                	add    %edx,%eax
    328d:	c1 e0 04             	shl    $0x4,%eax
    3290:	29 c1                	sub    %eax,%ecx
    3292:	89 ca                	mov    %ecx,%edx
    3294:	89 55 f0             	mov    %edx,-0x10(%ebp)
    3297:	8b 45 08             	mov    0x8(%ebp),%eax
    329a:	8b 50 0c             	mov    0xc(%eax),%edx
    329d:	8b 45 08             	mov    0x8(%ebp),%eax
    32a0:	8b 40 04             	mov    0x4(%eax),%eax
    32a3:	29 c2                	sub    %eax,%edx
    32a5:	89 d0                	mov    %edx,%eax
    32a7:	ba cd cc cc cc       	mov    $0xcccccccd,%edx
    32ac:	f7 e2                	mul    %edx
    32ae:	89 d0                	mov    %edx,%eax
    32b0:	c1 e8 06             	shr    $0x6,%eax
    32b3:	89 45 ec             	mov    %eax,-0x14(%ebp)
    32b6:	8b 45 08             	mov    0x8(%ebp),%eax
    32b9:	8b 48 04             	mov    0x4(%eax),%ecx
    32bc:	8b 45 ec             	mov    -0x14(%ebp),%eax
    32bf:	8d 50 01             	lea    0x1(%eax),%edx
    32c2:	89 d0                	mov    %edx,%eax
    32c4:	c1 e0 02             	shl    $0x2,%eax
    32c7:	01 d0                	add    %edx,%eax
    32c9:	c1 e0 04             	shl    $0x4,%eax
    32cc:	01 c8                	add    %ecx,%eax
    32ce:	2d d0 07 00 00       	sub    $0x7d0,%eax
    32d3:	89 45 e8             	mov    %eax,-0x18(%ebp)
    32d6:	8b 55 e8             	mov    -0x18(%ebp),%edx
    32d9:	8b 45 08             	mov    0x8(%ebp),%eax
    32dc:	8b 40 04             	mov    0x4(%eax),%eax
    32df:	83 ec 04             	sub    $0x4,%esp
    32e2:	68 80 07 00 00       	push   $0x780
    32e7:	52                   	push   %edx
    32e8:	50                   	push   %eax
    32e9:	e8 67 04 00 00       	call   3755 <w_copy>
    32ee:	83 c4 10             	add    $0x10,%esp
    32f1:	8b 45 08             	mov    0x8(%ebp),%eax
    32f4:	8b 50 04             	mov    0x4(%eax),%edx
    32f7:	8b 45 08             	mov    0x8(%ebp),%eax
    32fa:	89 10                	mov    %edx,(%eax)
    32fc:	8b 45 08             	mov    0x8(%ebp),%eax
    32ff:	8b 50 04             	mov    0x4(%eax),%edx
    3302:	8b 45 f0             	mov    -0x10(%ebp),%eax
    3305:	01 d0                	add    %edx,%eax
    3307:	8d 90 80 07 00 00    	lea    0x780(%eax),%edx
    330d:	8b 45 08             	mov    0x8(%ebp),%eax
    3310:	89 50 0c             	mov    %edx,0xc(%eax)
    3313:	8b 45 08             	mov    0x8(%ebp),%eax
    3316:	8b 40 0c             	mov    0xc(%eax),%eax
    3319:	83 ec 08             	sub    $0x8,%esp
    331c:	6a 50                	push   $0x50
    331e:	50                   	push   %eax
    331f:	e8 a5 00 00 00       	call   33c9 <clear_screen>
    3324:	83 c4 10             	add    $0x10,%esp
    3327:	8b 45 08             	mov    0x8(%ebp),%eax
    332a:	8b 40 10             	mov    0x10(%eax),%eax
    332d:	85 c0                	test   %eax,%eax
    332f:	75 0a                	jne    333b <out_char+0x215>
    3331:	8b 45 08             	mov    0x8(%ebp),%eax
    3334:	c7 40 10 01 00 00 00 	movl   $0x1,0x10(%eax)
    333b:	8b 45 08             	mov    0x8(%ebp),%eax
    333e:	8b 50 0c             	mov    0xc(%eax),%edx
    3341:	8b 45 08             	mov    0x8(%ebp),%eax
    3344:	8b 40 04             	mov    0x4(%eax),%eax
    3347:	29 c2                	sub    %eax,%edx
    3349:	8b 45 08             	mov    0x8(%ebp),%eax
    334c:	8b 40 08             	mov    0x8(%eax),%eax
    334f:	39 c2                	cmp    %eax,%edx
    3351:	72 42                	jb     3395 <out_char+0x26f>
    3353:	68 80 00 00 00       	push   $0x80
    3358:	68 8c cf 00 00       	push   $0xcf8c
    335d:	68 8c cf 00 00       	push   $0xcf8c
    3362:	68 a0 cf 00 00       	push   $0xcfa0
    3367:	e8 71 93 00 00       	call   c6dd <assertion_failure>
    336c:	83 c4 10             	add    $0x10,%esp
    336f:	eb 24                	jmp    3395 <out_char+0x26f>
    3371:	83 ec 08             	sub    $0x8,%esp
    3374:	6a 01                	push   $0x1
    3376:	ff 75 08             	pushl  0x8(%ebp)
    3379:	e8 b8 01 00 00       	call   3536 <scroll_screen>
    337e:	83 c4 10             	add    $0x10,%esp
    3381:	8b 45 08             	mov    0x8(%ebp),%eax
    3384:	8b 40 0c             	mov    0xc(%eax),%eax
    3387:	83 ec 08             	sub    $0x8,%esp
    338a:	6a 50                	push   $0x50
    338c:	50                   	push   %eax
    338d:	e8 37 00 00 00       	call   33c9 <clear_screen>
    3392:	83 c4 10             	add    $0x10,%esp
    3395:	8b 45 08             	mov    0x8(%ebp),%eax
    3398:	8b 50 0c             	mov    0xc(%eax),%edx
    339b:	8b 45 08             	mov    0x8(%ebp),%eax
    339e:	8b 00                	mov    (%eax),%eax
    33a0:	05 d0 07 00 00       	add    $0x7d0,%eax
    33a5:	39 c2                	cmp    %eax,%edx
    33a7:	73 c8                	jae    3371 <out_char+0x24b>
    33a9:	8b 45 08             	mov    0x8(%ebp),%eax
    33ac:	8b 50 0c             	mov    0xc(%eax),%edx
    33af:	8b 45 08             	mov    0x8(%ebp),%eax
    33b2:	8b 00                	mov    (%eax),%eax
    33b4:	39 c2                	cmp    %eax,%edx
    33b6:	72 b9                	jb     3371 <out_char+0x24b>
    33b8:	83 ec 0c             	sub    $0xc,%esp
    33bb:	ff 75 08             	pushl  0x8(%ebp)
    33be:	e8 57 03 00 00       	call   371a <flush>
    33c3:	83 c4 10             	add    $0x10,%esp
    33c6:	90                   	nop
    33c7:	c9                   	leave  
    33c8:	c3                   	ret    

000033c9 <clear_screen>:
    33c9:	55                   	push   %ebp
    33ca:	89 e5                	mov    %esp,%ebp
    33cc:	83 ec 10             	sub    $0x10,%esp
    33cf:	8b 45 08             	mov    0x8(%ebp),%eax
    33d2:	05 00 c0 05 00       	add    $0x5c000,%eax
    33d7:	01 c0                	add    %eax,%eax
    33d9:	89 45 fc             	mov    %eax,-0x4(%ebp)
    33dc:	eb 18                	jmp    33f6 <clear_screen+0x2d>
    33de:	8b 45 fc             	mov    -0x4(%ebp),%eax
    33e1:	8d 50 01             	lea    0x1(%eax),%edx
    33e4:	89 55 fc             	mov    %edx,-0x4(%ebp)
    33e7:	c6 00 20             	movb   $0x20,(%eax)
    33ea:	8b 45 fc             	mov    -0x4(%ebp),%eax
    33ed:	8d 50 01             	lea    0x1(%eax),%edx
    33f0:	89 55 fc             	mov    %edx,-0x4(%ebp)
    33f3:	c6 00 07             	movb   $0x7,(%eax)
    33f6:	83 6d 0c 01          	subl   $0x1,0xc(%ebp)
    33fa:	83 7d 0c 00          	cmpl   $0x0,0xc(%ebp)
    33fe:	79 de                	jns    33de <clear_screen+0x15>
    3400:	90                   	nop
    3401:	c9                   	leave  
    3402:	c3                   	ret    

00003403 <is_current_console>:
    3403:	55                   	push   %ebp
    3404:	89 e5                	mov    %esp,%ebp
    3406:	8b 15 40 88 03 00    	mov    0x38840,%edx
    340c:	89 d0                	mov    %edx,%eax
    340e:	c1 e0 02             	shl    $0x2,%eax
    3411:	01 d0                	add    %edx,%eax
    3413:	c1 e0 02             	shl    $0x2,%eax
    3416:	05 00 a4 03 00       	add    $0x3a400,%eax
    341b:	39 45 08             	cmp    %eax,0x8(%ebp)
    341e:	0f 94 c0             	sete   %al
    3421:	0f b6 c0             	movzbl %al,%eax
    3424:	5d                   	pop    %ebp
    3425:	c3                   	ret    

00003426 <set_cursor>:
    3426:	55                   	push   %ebp
    3427:	89 e5                	mov    %esp,%ebp
    3429:	83 ec 08             	sub    $0x8,%esp
    342c:	e8 ac 32 00 00       	call   66dd <disable_int>
    3431:	83 ec 08             	sub    $0x8,%esp
    3434:	6a 0e                	push   $0xe
    3436:	68 d4 03 00 00       	push   $0x3d4
    343b:	e8 0d 32 00 00       	call   664d <out_byte>
    3440:	83 c4 10             	add    $0x10,%esp
    3443:	8b 45 08             	mov    0x8(%ebp),%eax
    3446:	c1 e8 08             	shr    $0x8,%eax
    3449:	0f b6 c0             	movzbl %al,%eax
    344c:	83 ec 08             	sub    $0x8,%esp
    344f:	50                   	push   %eax
    3450:	68 d5 03 00 00       	push   $0x3d5
    3455:	e8 f3 31 00 00       	call   664d <out_byte>
    345a:	83 c4 10             	add    $0x10,%esp
    345d:	83 ec 08             	sub    $0x8,%esp
    3460:	6a 0f                	push   $0xf
    3462:	68 d4 03 00 00       	push   $0x3d4
    3467:	e8 e1 31 00 00       	call   664d <out_byte>
    346c:	83 c4 10             	add    $0x10,%esp
    346f:	8b 45 08             	mov    0x8(%ebp),%eax
    3472:	0f b6 c0             	movzbl %al,%eax
    3475:	83 ec 08             	sub    $0x8,%esp
    3478:	50                   	push   %eax
    3479:	68 d5 03 00 00       	push   $0x3d5
    347e:	e8 ca 31 00 00       	call   664d <out_byte>
    3483:	83 c4 10             	add    $0x10,%esp
    3486:	e8 54 32 00 00       	call   66df <enable_int>
    348b:	90                   	nop
    348c:	c9                   	leave  
    348d:	c3                   	ret    

0000348e <set_video_start_addr>:
    348e:	55                   	push   %ebp
    348f:	89 e5                	mov    %esp,%ebp
    3491:	83 ec 08             	sub    $0x8,%esp
    3494:	e8 44 32 00 00       	call   66dd <disable_int>
    3499:	83 ec 08             	sub    $0x8,%esp
    349c:	6a 0c                	push   $0xc
    349e:	68 d4 03 00 00       	push   $0x3d4
    34a3:	e8 a5 31 00 00       	call   664d <out_byte>
    34a8:	83 c4 10             	add    $0x10,%esp
    34ab:	8b 45 08             	mov    0x8(%ebp),%eax
    34ae:	c1 e8 08             	shr    $0x8,%eax
    34b1:	0f b6 c0             	movzbl %al,%eax
    34b4:	83 ec 08             	sub    $0x8,%esp
    34b7:	50                   	push   %eax
    34b8:	68 d5 03 00 00       	push   $0x3d5
    34bd:	e8 8b 31 00 00       	call   664d <out_byte>
    34c2:	83 c4 10             	add    $0x10,%esp
    34c5:	83 ec 08             	sub    $0x8,%esp
    34c8:	6a 0d                	push   $0xd
    34ca:	68 d4 03 00 00       	push   $0x3d4
    34cf:	e8 79 31 00 00       	call   664d <out_byte>
    34d4:	83 c4 10             	add    $0x10,%esp
    34d7:	8b 45 08             	mov    0x8(%ebp),%eax
    34da:	0f b6 c0             	movzbl %al,%eax
    34dd:	83 ec 08             	sub    $0x8,%esp
    34e0:	50                   	push   %eax
    34e1:	68 d5 03 00 00       	push   $0x3d5
    34e6:	e8 62 31 00 00       	call   664d <out_byte>
    34eb:	83 c4 10             	add    $0x10,%esp
    34ee:	e8 ec 31 00 00       	call   66df <enable_int>
    34f3:	90                   	nop
    34f4:	c9                   	leave  
    34f5:	c3                   	ret    

000034f6 <select_console>:
    34f6:	55                   	push   %ebp
    34f7:	89 e5                	mov    %esp,%ebp
    34f9:	83 ec 08             	sub    $0x8,%esp
    34fc:	83 7d 08 00          	cmpl   $0x0,0x8(%ebp)
    3500:	78 31                	js     3533 <select_console+0x3d>
    3502:	83 7d 08 02          	cmpl   $0x2,0x8(%ebp)
    3506:	7f 2b                	jg     3533 <select_console+0x3d>
    3508:	8b 45 08             	mov    0x8(%ebp),%eax
    350b:	a3 40 88 03 00       	mov    %eax,0x38840
    3510:	8b 15 40 88 03 00    	mov    0x38840,%edx
    3516:	89 d0                	mov    %edx,%eax
    3518:	c1 e0 02             	shl    $0x2,%eax
    351b:	01 d0                	add    %edx,%eax
    351d:	c1 e0 02             	shl    $0x2,%eax
    3520:	05 00 a4 03 00       	add    $0x3a400,%eax
    3525:	83 ec 0c             	sub    $0xc,%esp
    3528:	50                   	push   %eax
    3529:	e8 ec 01 00 00       	call   371a <flush>
    352e:	83 c4 10             	add    $0x10,%esp
    3531:	eb 01                	jmp    3534 <select_console+0x3e>
    3533:	90                   	nop
    3534:	c9                   	leave  
    3535:	c3                   	ret    

00003536 <scroll_screen>:
    3536:	55                   	push   %ebp
    3537:	89 e5                	mov    %esp,%ebp
    3539:	83 ec 18             	sub    $0x18,%esp
    353c:	8b 45 08             	mov    0x8(%ebp),%eax
    353f:	8b 50 0c             	mov    0xc(%eax),%edx
    3542:	8b 45 08             	mov    0x8(%ebp),%eax
    3545:	8b 40 04             	mov    0x4(%eax),%eax
    3548:	29 c2                	sub    %eax,%edx
    354a:	89 d0                	mov    %edx,%eax
    354c:	ba cd cc cc cc       	mov    $0xcccccccd,%edx
    3551:	f7 e2                	mul    %edx
    3553:	c1 ea 06             	shr    $0x6,%edx
    3556:	89 d0                	mov    %edx,%eax
    3558:	c1 e0 02             	shl    $0x2,%eax
    355b:	01 d0                	add    %edx,%eax
    355d:	c1 e0 04             	shl    $0x4,%eax
    3560:	89 45 f4             	mov    %eax,-0xc(%ebp)
    3563:	8b 45 08             	mov    0x8(%ebp),%eax
    3566:	8b 40 10             	mov    0x10(%eax),%eax
    3569:	85 c0                	test   %eax,%eax
    356b:	74 1b                	je     3588 <scroll_screen+0x52>
    356d:	8b 45 f4             	mov    -0xc(%ebp),%eax
    3570:	83 c0 50             	add    $0x50,%eax
    3573:	89 c2                	mov    %eax,%edx
    3575:	8b 45 08             	mov    0x8(%ebp),%eax
    3578:	8b 48 08             	mov    0x8(%eax),%ecx
    357b:	89 d0                	mov    %edx,%eax
    357d:	ba 00 00 00 00       	mov    $0x0,%edx
    3582:	f7 f1                	div    %ecx
    3584:	89 d0                	mov    %edx,%eax
    3586:	eb 05                	jmp    358d <scroll_screen+0x57>
    3588:	b8 00 00 00 00       	mov    $0x0,%eax
    358d:	89 45 f0             	mov    %eax,-0x10(%ebp)
    3590:	8b 45 08             	mov    0x8(%ebp),%eax
    3593:	8b 10                	mov    (%eax),%edx
    3595:	8b 45 08             	mov    0x8(%ebp),%eax
    3598:	8b 40 04             	mov    0x4(%eax),%eax
    359b:	29 c2                	sub    %eax,%edx
    359d:	89 d0                	mov    %edx,%eax
    359f:	89 45 ec             	mov    %eax,-0x14(%ebp)
    35a2:	83 7d 0c ff          	cmpl   $0xffffffff,0xc(%ebp)
    35a6:	0f 85 c2 00 00 00    	jne    366e <scroll_screen+0x138>
    35ac:	8b 45 08             	mov    0x8(%ebp),%eax
    35af:	8b 40 10             	mov    0x10(%eax),%eax
    35b2:	85 c0                	test   %eax,%eax
    35b4:	75 18                	jne    35ce <scroll_screen+0x98>
    35b6:	83 7d ec 00          	cmpl   $0x0,-0x14(%ebp)
    35ba:	7e 12                	jle    35ce <scroll_screen+0x98>
    35bc:	8b 45 08             	mov    0x8(%ebp),%eax
    35bf:	8b 00                	mov    (%eax),%eax
    35c1:	8d 50 b0             	lea    -0x50(%eax),%edx
    35c4:	8b 45 08             	mov    0x8(%ebp),%eax
    35c7:	89 10                	mov    %edx,(%eax)
    35c9:	e9 3b 01 00 00       	jmp    3709 <scroll_screen+0x1d3>
    35ce:	8b 45 08             	mov    0x8(%ebp),%eax
    35d1:	8b 40 10             	mov    0x10(%eax),%eax
    35d4:	85 c0                	test   %eax,%eax
    35d6:	0f 84 2d 01 00 00    	je     3709 <scroll_screen+0x1d3>
    35dc:	8b 45 ec             	mov    -0x14(%ebp),%eax
    35df:	3b 45 f0             	cmp    -0x10(%ebp),%eax
    35e2:	0f 84 21 01 00 00    	je     3709 <scroll_screen+0x1d3>
    35e8:	8b 45 08             	mov    0x8(%ebp),%eax
    35eb:	8b 50 0c             	mov    0xc(%eax),%edx
    35ee:	8b 45 08             	mov    0x8(%ebp),%eax
    35f1:	8b 40 04             	mov    0x4(%eax),%eax
    35f4:	29 c2                	sub    %eax,%edx
    35f6:	8b 45 08             	mov    0x8(%ebp),%eax
    35f9:	8b 40 08             	mov    0x8(%eax),%eax
    35fc:	2d d0 07 00 00       	sub    $0x7d0,%eax
    3601:	39 c2                	cmp    %eax,%edx
    3603:	72 25                	jb     362a <scroll_screen+0xf4>
    3605:	8b 45 08             	mov    0x8(%ebp),%eax
    3608:	8b 10                	mov    (%eax),%edx
    360a:	8b 45 08             	mov    0x8(%ebp),%eax
    360d:	8b 40 04             	mov    0x4(%eax),%eax
    3610:	39 c2                	cmp    %eax,%edx
    3612:	0f 84 f1 00 00 00    	je     3709 <scroll_screen+0x1d3>
    3618:	8b 45 08             	mov    0x8(%ebp),%eax
    361b:	8b 00                	mov    (%eax),%eax
    361d:	8d 50 b0             	lea    -0x50(%eax),%edx
    3620:	8b 45 08             	mov    0x8(%ebp),%eax
    3623:	89 10                	mov    %edx,(%eax)
    3625:	e9 df 00 00 00       	jmp    3709 <scroll_screen+0x1d3>
    362a:	8b 45 08             	mov    0x8(%ebp),%eax
    362d:	8b 10                	mov    (%eax),%edx
    362f:	8b 45 08             	mov    0x8(%ebp),%eax
    3632:	8b 40 04             	mov    0x4(%eax),%eax
    3635:	39 c2                	cmp    %eax,%edx
    3637:	75 23                	jne    365c <scroll_screen+0x126>
    3639:	8b 45 08             	mov    0x8(%ebp),%eax
    363c:	8b 40 08             	mov    0x8(%eax),%eax
    363f:	2d d0 07 00 00       	sub    $0x7d0,%eax
    3644:	89 45 ec             	mov    %eax,-0x14(%ebp)
    3647:	8b 45 08             	mov    0x8(%ebp),%eax
    364a:	8b 50 04             	mov    0x4(%eax),%edx
    364d:	8b 45 ec             	mov    -0x14(%ebp),%eax
    3650:	01 c2                	add    %eax,%edx
    3652:	8b 45 08             	mov    0x8(%ebp),%eax
    3655:	89 10                	mov    %edx,(%eax)
    3657:	e9 ad 00 00 00       	jmp    3709 <scroll_screen+0x1d3>
    365c:	8b 45 08             	mov    0x8(%ebp),%eax
    365f:	8b 00                	mov    (%eax),%eax
    3661:	8d 50 b0             	lea    -0x50(%eax),%edx
    3664:	8b 45 08             	mov    0x8(%ebp),%eax
    3667:	89 10                	mov    %edx,(%eax)
    3669:	e9 9b 00 00 00       	jmp    3709 <scroll_screen+0x1d3>
    366e:	83 7d 0c 01          	cmpl   $0x1,0xc(%ebp)
    3672:	75 6d                	jne    36e1 <scroll_screen+0x1ab>
    3674:	8b 45 08             	mov    0x8(%ebp),%eax
    3677:	8b 40 10             	mov    0x10(%eax),%eax
    367a:	85 c0                	test   %eax,%eax
    367c:	75 1c                	jne    369a <scroll_screen+0x164>
    367e:	8b 45 ec             	mov    -0x14(%ebp),%eax
    3681:	05 cf 07 00 00       	add    $0x7cf,%eax
    3686:	39 45 f4             	cmp    %eax,-0xc(%ebp)
    3689:	7e 0f                	jle    369a <scroll_screen+0x164>
    368b:	8b 45 08             	mov    0x8(%ebp),%eax
    368e:	8b 00                	mov    (%eax),%eax
    3690:	8d 50 50             	lea    0x50(%eax),%edx
    3693:	8b 45 08             	mov    0x8(%ebp),%eax
    3696:	89 10                	mov    %edx,(%eax)
    3698:	eb 6f                	jmp    3709 <scroll_screen+0x1d3>
    369a:	8b 45 08             	mov    0x8(%ebp),%eax
    369d:	8b 40 10             	mov    0x10(%eax),%eax
    36a0:	85 c0                	test   %eax,%eax
    36a2:	74 65                	je     3709 <scroll_screen+0x1d3>
    36a4:	8b 45 ec             	mov    -0x14(%ebp),%eax
    36a7:	05 80 07 00 00       	add    $0x780,%eax
    36ac:	39 45 f4             	cmp    %eax,-0xc(%ebp)
    36af:	74 58                	je     3709 <scroll_screen+0x1d3>
    36b1:	8b 45 ec             	mov    -0x14(%ebp),%eax
    36b4:	05 d0 07 00 00       	add    $0x7d0,%eax
    36b9:	89 c2                	mov    %eax,%edx
    36bb:	8b 45 08             	mov    0x8(%ebp),%eax
    36be:	8b 40 08             	mov    0x8(%eax),%eax
    36c1:	39 c2                	cmp    %eax,%edx
    36c3:	75 0d                	jne    36d2 <scroll_screen+0x19c>
    36c5:	8b 45 08             	mov    0x8(%ebp),%eax
    36c8:	8b 50 04             	mov    0x4(%eax),%edx
    36cb:	8b 45 08             	mov    0x8(%ebp),%eax
    36ce:	89 10                	mov    %edx,(%eax)
    36d0:	eb 37                	jmp    3709 <scroll_screen+0x1d3>
    36d2:	8b 45 08             	mov    0x8(%ebp),%eax
    36d5:	8b 00                	mov    (%eax),%eax
    36d7:	8d 50 50             	lea    0x50(%eax),%edx
    36da:	8b 45 08             	mov    0x8(%ebp),%eax
    36dd:	89 10                	mov    %edx,(%eax)
    36df:	eb 28                	jmp    3709 <scroll_screen+0x1d3>
    36e1:	83 7d 0c ff          	cmpl   $0xffffffff,0xc(%ebp)
    36e5:	74 22                	je     3709 <scroll_screen+0x1d3>
    36e7:	83 7d 0c 01          	cmpl   $0x1,0xc(%ebp)
    36eb:	74 1c                	je     3709 <scroll_screen+0x1d3>
    36ed:	68 24 01 00 00       	push   $0x124
    36f2:	68 8c cf 00 00       	push   $0xcf8c
    36f7:	68 8c cf 00 00       	push   $0xcf8c
    36fc:	68 c8 cf 00 00       	push   $0xcfc8
    3701:	e8 d7 8f 00 00       	call   c6dd <assertion_failure>
    3706:	83 c4 10             	add    $0x10,%esp
    3709:	83 ec 0c             	sub    $0xc,%esp
    370c:	ff 75 08             	pushl  0x8(%ebp)
    370f:	e8 06 00 00 00       	call   371a <flush>
    3714:	83 c4 10             	add    $0x10,%esp
    3717:	90                   	nop
    3718:	c9                   	leave  
    3719:	c3                   	ret    

0000371a <flush>:
    371a:	55                   	push   %ebp
    371b:	89 e5                	mov    %esp,%ebp
    371d:	83 ec 08             	sub    $0x8,%esp
    3720:	ff 75 08             	pushl  0x8(%ebp)
    3723:	e8 db fc ff ff       	call   3403 <is_current_console>
    3728:	83 c4 04             	add    $0x4,%esp
    372b:	85 c0                	test   %eax,%eax
    372d:	74 23                	je     3752 <flush+0x38>
    372f:	8b 45 08             	mov    0x8(%ebp),%eax
    3732:	8b 40 0c             	mov    0xc(%eax),%eax
    3735:	83 ec 0c             	sub    $0xc,%esp
    3738:	50                   	push   %eax
    3739:	e8 e8 fc ff ff       	call   3426 <set_cursor>
    373e:	83 c4 10             	add    $0x10,%esp
    3741:	8b 45 08             	mov    0x8(%ebp),%eax
    3744:	8b 00                	mov    (%eax),%eax
    3746:	83 ec 0c             	sub    $0xc,%esp
    3749:	50                   	push   %eax
    374a:	e8 3f fd ff ff       	call   348e <set_video_start_addr>
    374f:	83 c4 10             	add    $0x10,%esp
    3752:	90                   	nop
    3753:	c9                   	leave  
    3754:	c3                   	ret    

00003755 <w_copy>:
    3755:	55                   	push   %ebp
    3756:	89 e5                	mov    %esp,%ebp
    3758:	83 ec 08             	sub    $0x8,%esp
    375b:	8b 45 10             	mov    0x10(%ebp),%eax
    375e:	01 c0                	add    %eax,%eax
    3760:	8b 55 0c             	mov    0xc(%ebp),%edx
    3763:	01 d2                	add    %edx,%edx
    3765:	81 c2 00 80 0b 00    	add    $0xb8000,%edx
    376b:	89 d1                	mov    %edx,%ecx
    376d:	8b 55 08             	mov    0x8(%ebp),%edx
    3770:	01 d2                	add    %edx,%edx
    3772:	81 c2 00 80 0b 00    	add    $0xb8000,%edx
    3778:	83 ec 04             	sub    $0x4,%esp
    377b:	50                   	push   %eax
    377c:	51                   	push   %ecx
    377d:	52                   	push   %edx
    377e:	e8 cd 8c 00 00       	call   c450 <memcpy>
    3783:	83 c4 10             	add    $0x10,%esp
    3786:	90                   	nop
    3787:	c9                   	leave  
    3788:	c3                   	ret    

00003789 <init_8259A>:
    3789:	55                   	push   %ebp
    378a:	89 e5                	mov    %esp,%ebp
    378c:	83 ec 18             	sub    $0x18,%esp
    378f:	83 ec 08             	sub    $0x8,%esp
    3792:	6a 11                	push   $0x11
    3794:	6a 20                	push   $0x20
    3796:	e8 b2 2e 00 00       	call   664d <out_byte>
    379b:	83 c4 10             	add    $0x10,%esp
    379e:	83 ec 08             	sub    $0x8,%esp
    37a1:	6a 11                	push   $0x11
    37a3:	68 a0 00 00 00       	push   $0xa0
    37a8:	e8 a0 2e 00 00       	call   664d <out_byte>
    37ad:	83 c4 10             	add    $0x10,%esp
    37b0:	83 ec 08             	sub    $0x8,%esp
    37b3:	6a 20                	push   $0x20
    37b5:	6a 21                	push   $0x21
    37b7:	e8 91 2e 00 00       	call   664d <out_byte>
    37bc:	83 c4 10             	add    $0x10,%esp
    37bf:	83 ec 08             	sub    $0x8,%esp
    37c2:	6a 28                	push   $0x28
    37c4:	68 a1 00 00 00       	push   $0xa1
    37c9:	e8 7f 2e 00 00       	call   664d <out_byte>
    37ce:	83 c4 10             	add    $0x10,%esp
    37d1:	83 ec 08             	sub    $0x8,%esp
    37d4:	6a 04                	push   $0x4
    37d6:	6a 21                	push   $0x21
    37d8:	e8 70 2e 00 00       	call   664d <out_byte>
    37dd:	83 c4 10             	add    $0x10,%esp
    37e0:	83 ec 08             	sub    $0x8,%esp
    37e3:	6a 02                	push   $0x2
    37e5:	68 a1 00 00 00       	push   $0xa1
    37ea:	e8 5e 2e 00 00       	call   664d <out_byte>
    37ef:	83 c4 10             	add    $0x10,%esp
    37f2:	83 ec 08             	sub    $0x8,%esp
    37f5:	6a 01                	push   $0x1
    37f7:	6a 21                	push   $0x21
    37f9:	e8 4f 2e 00 00       	call   664d <out_byte>
    37fe:	83 c4 10             	add    $0x10,%esp
    3801:	83 ec 08             	sub    $0x8,%esp
    3804:	6a 01                	push   $0x1
    3806:	68 a1 00 00 00       	push   $0xa1
    380b:	e8 3d 2e 00 00       	call   664d <out_byte>
    3810:	83 c4 10             	add    $0x10,%esp
    3813:	83 ec 08             	sub    $0x8,%esp
    3816:	68 ff 00 00 00       	push   $0xff
    381b:	6a 21                	push   $0x21
    381d:	e8 2b 2e 00 00       	call   664d <out_byte>
    3822:	83 c4 10             	add    $0x10,%esp
    3825:	83 ec 08             	sub    $0x8,%esp
    3828:	68 ff 00 00 00       	push   $0xff
    382d:	68 a1 00 00 00       	push   $0xa1
    3832:	e8 16 2e 00 00       	call   664d <out_byte>
    3837:	83 c4 10             	add    $0x10,%esp
    383a:	c7 45 f4 00 00 00 00 	movl   $0x0,-0xc(%ebp)
    3841:	eb 12                	jmp    3855 <init_8259A+0xcc>
    3843:	8b 45 f4             	mov    -0xc(%ebp),%eax
    3846:	c7 04 85 40 a4 03 00 	movl   $0x385e,0x3a440(,%eax,4)
    384d:	5e 38 00 00 
    3851:	83 45 f4 01          	addl   $0x1,-0xc(%ebp)
    3855:	83 7d f4 0f          	cmpl   $0xf,-0xc(%ebp)
    3859:	7e e8                	jle    3843 <init_8259A+0xba>
    385b:	90                   	nop
    385c:	c9                   	leave  
    385d:	c3                   	ret    

0000385e <spurious_irq>:
    385e:	55                   	push   %ebp
    385f:	89 e5                	mov    %esp,%ebp
    3861:	83 ec 08             	sub    $0x8,%esp
    3864:	83 ec 0c             	sub    $0xc,%esp
    3867:	68 e7 cf 00 00       	push   $0xcfe7
    386c:	e8 5f 2d 00 00       	call   65d0 <disp_str>
    3871:	83 c4 10             	add    $0x10,%esp
    3874:	83 ec 0c             	sub    $0xc,%esp
    3877:	ff 75 08             	pushl  0x8(%ebp)
    387a:	e8 2c 31 00 00       	call   69ab <disp_int>
    387f:	83 c4 10             	add    $0x10,%esp
    3882:	83 ec 0c             	sub    $0xc,%esp
    3885:	68 f6 cf 00 00       	push   $0xcff6
    388a:	e8 41 2d 00 00       	call   65d0 <disp_str>
    388f:	83 c4 10             	add    $0x10,%esp
    3892:	90                   	nop
    3893:	c9                   	leave  
    3894:	c3                   	ret    

00003895 <put_irq_handler>:
    3895:	55                   	push   %ebp
    3896:	89 e5                	mov    %esp,%ebp
    3898:	83 ec 08             	sub    $0x8,%esp
    389b:	83 ec 0c             	sub    $0xc,%esp
    389e:	ff 75 08             	pushl  0x8(%ebp)
    38a1:	e8 e3 2d 00 00       	call   6689 <disable_irq>
    38a6:	83 c4 10             	add    $0x10,%esp
    38a9:	8b 45 08             	mov    0x8(%ebp),%eax
    38ac:	8b 55 0c             	mov    0xc(%ebp),%edx
    38af:	89 14 85 40 a4 03 00 	mov    %edx,0x3a440(,%eax,4)
    38b6:	90                   	nop
    38b7:	c9                   	leave  
    38b8:	c3                   	ret    

000038b9 <init_prot>:
    38b9:	55                   	push   %ebp
    38ba:	89 e5                	mov    %esp,%ebp
    38bc:	83 ec 18             	sub    $0x18,%esp
    38bf:	e8 c5 fe ff ff       	call   3789 <init_8259A>
    38c4:	6a 00                	push   $0x0
    38c6:	68 44 13 00 00       	push   $0x1344
    38cb:	68 8e 00 00 00       	push   $0x8e
    38d0:	6a 00                	push   $0x0
    38d2:	e8 d4 03 00 00       	call   3cab <init_idt_desc>
    38d7:	83 c4 10             	add    $0x10,%esp
    38da:	6a 00                	push   $0x0
    38dc:	68 4a 13 00 00       	push   $0x134a
    38e1:	68 8e 00 00 00       	push   $0x8e
    38e6:	6a 01                	push   $0x1
    38e8:	e8 be 03 00 00       	call   3cab <init_idt_desc>
    38ed:	83 c4 10             	add    $0x10,%esp
    38f0:	6a 00                	push   $0x0
    38f2:	68 50 13 00 00       	push   $0x1350
    38f7:	68 8e 00 00 00       	push   $0x8e
    38fc:	6a 02                	push   $0x2
    38fe:	e8 a8 03 00 00       	call   3cab <init_idt_desc>
    3903:	83 c4 10             	add    $0x10,%esp
    3906:	6a 03                	push   $0x3
    3908:	68 56 13 00 00       	push   $0x1356
    390d:	68 8e 00 00 00       	push   $0x8e
    3912:	6a 03                	push   $0x3
    3914:	e8 92 03 00 00       	call   3cab <init_idt_desc>
    3919:	83 c4 10             	add    $0x10,%esp
    391c:	6a 03                	push   $0x3
    391e:	68 5c 13 00 00       	push   $0x135c
    3923:	68 8e 00 00 00       	push   $0x8e
    3928:	6a 04                	push   $0x4
    392a:	e8 7c 03 00 00       	call   3cab <init_idt_desc>
    392f:	83 c4 10             	add    $0x10,%esp
    3932:	6a 00                	push   $0x0
    3934:	68 62 13 00 00       	push   $0x1362
    3939:	68 8e 00 00 00       	push   $0x8e
    393e:	6a 05                	push   $0x5
    3940:	e8 66 03 00 00       	call   3cab <init_idt_desc>
    3945:	83 c4 10             	add    $0x10,%esp
    3948:	6a 00                	push   $0x0
    394a:	68 68 13 00 00       	push   $0x1368
    394f:	68 8e 00 00 00       	push   $0x8e
    3954:	6a 06                	push   $0x6
    3956:	e8 50 03 00 00       	call   3cab <init_idt_desc>
    395b:	83 c4 10             	add    $0x10,%esp
    395e:	6a 00                	push   $0x0
    3960:	68 6e 13 00 00       	push   $0x136e
    3965:	68 8e 00 00 00       	push   $0x8e
    396a:	6a 07                	push   $0x7
    396c:	e8 3a 03 00 00       	call   3cab <init_idt_desc>
    3971:	83 c4 10             	add    $0x10,%esp
    3974:	6a 00                	push   $0x0
    3976:	68 74 13 00 00       	push   $0x1374
    397b:	68 8e 00 00 00       	push   $0x8e
    3980:	6a 08                	push   $0x8
    3982:	e8 24 03 00 00       	call   3cab <init_idt_desc>
    3987:	83 c4 10             	add    $0x10,%esp
    398a:	6a 00                	push   $0x0
    398c:	68 78 13 00 00       	push   $0x1378
    3991:	68 8e 00 00 00       	push   $0x8e
    3996:	6a 09                	push   $0x9
    3998:	e8 0e 03 00 00       	call   3cab <init_idt_desc>
    399d:	83 c4 10             	add    $0x10,%esp
    39a0:	6a 00                	push   $0x0
    39a2:	68 7e 13 00 00       	push   $0x137e
    39a7:	68 8e 00 00 00       	push   $0x8e
    39ac:	6a 0a                	push   $0xa
    39ae:	e8 f8 02 00 00       	call   3cab <init_idt_desc>
    39b3:	83 c4 10             	add    $0x10,%esp
    39b6:	6a 00                	push   $0x0
    39b8:	68 82 13 00 00       	push   $0x1382
    39bd:	68 8e 00 00 00       	push   $0x8e
    39c2:	6a 0b                	push   $0xb
    39c4:	e8 e2 02 00 00       	call   3cab <init_idt_desc>
    39c9:	83 c4 10             	add    $0x10,%esp
    39cc:	6a 00                	push   $0x0
    39ce:	68 86 13 00 00       	push   $0x1386
    39d3:	68 8e 00 00 00       	push   $0x8e
    39d8:	6a 0c                	push   $0xc
    39da:	e8 cc 02 00 00       	call   3cab <init_idt_desc>
    39df:	83 c4 10             	add    $0x10,%esp
    39e2:	6a 00                	push   $0x0
    39e4:	68 8a 13 00 00       	push   $0x138a
    39e9:	68 8e 00 00 00       	push   $0x8e
    39ee:	6a 0d                	push   $0xd
    39f0:	e8 b6 02 00 00       	call   3cab <init_idt_desc>
    39f5:	83 c4 10             	add    $0x10,%esp
    39f8:	6a 00                	push   $0x0
    39fa:	68 8e 13 00 00       	push   $0x138e
    39ff:	68 8e 00 00 00       	push   $0x8e
    3a04:	6a 0e                	push   $0xe
    3a06:	e8 a0 02 00 00       	call   3cab <init_idt_desc>
    3a0b:	83 c4 10             	add    $0x10,%esp
    3a0e:	6a 00                	push   $0x0
    3a10:	68 92 13 00 00       	push   $0x1392
    3a15:	68 8e 00 00 00       	push   $0x8e
    3a1a:	6a 10                	push   $0x10
    3a1c:	e8 8a 02 00 00       	call   3cab <init_idt_desc>
    3a21:	83 c4 10             	add    $0x10,%esp
    3a24:	6a 00                	push   $0x0
    3a26:	68 50 10 00 00       	push   $0x1050
    3a2b:	68 8e 00 00 00       	push   $0x8e
    3a30:	6a 20                	push   $0x20
    3a32:	e8 74 02 00 00       	call   3cab <init_idt_desc>
    3a37:	83 c4 10             	add    $0x10,%esp
    3a3a:	6a 00                	push   $0x0
    3a3c:	68 80 10 00 00       	push   $0x1080
    3a41:	68 8e 00 00 00       	push   $0x8e
    3a46:	6a 21                	push   $0x21
    3a48:	e8 5e 02 00 00       	call   3cab <init_idt_desc>
    3a4d:	83 c4 10             	add    $0x10,%esp
    3a50:	6a 00                	push   $0x0
    3a52:	68 b0 10 00 00       	push   $0x10b0
    3a57:	68 8e 00 00 00       	push   $0x8e
    3a5c:	6a 22                	push   $0x22
    3a5e:	e8 48 02 00 00       	call   3cab <init_idt_desc>
    3a63:	83 c4 10             	add    $0x10,%esp
    3a66:	6a 00                	push   $0x0
    3a68:	68 e0 10 00 00       	push   $0x10e0
    3a6d:	68 8e 00 00 00       	push   $0x8e
    3a72:	6a 23                	push   $0x23
    3a74:	e8 32 02 00 00       	call   3cab <init_idt_desc>
    3a79:	83 c4 10             	add    $0x10,%esp
    3a7c:	6a 00                	push   $0x0
    3a7e:	68 10 11 00 00       	push   $0x1110
    3a83:	68 8e 00 00 00       	push   $0x8e
    3a88:	6a 24                	push   $0x24
    3a8a:	e8 1c 02 00 00       	call   3cab <init_idt_desc>
    3a8f:	83 c4 10             	add    $0x10,%esp
    3a92:	6a 00                	push   $0x0
    3a94:	68 40 11 00 00       	push   $0x1140
    3a99:	68 8e 00 00 00       	push   $0x8e
    3a9e:	6a 25                	push   $0x25
    3aa0:	e8 06 02 00 00       	call   3cab <init_idt_desc>
    3aa5:	83 c4 10             	add    $0x10,%esp
    3aa8:	6a 00                	push   $0x0
    3aaa:	68 70 11 00 00       	push   $0x1170
    3aaf:	68 8e 00 00 00       	push   $0x8e
    3ab4:	6a 26                	push   $0x26
    3ab6:	e8 f0 01 00 00       	call   3cab <init_idt_desc>
    3abb:	83 c4 10             	add    $0x10,%esp
    3abe:	6a 00                	push   $0x0
    3ac0:	68 a0 11 00 00       	push   $0x11a0
    3ac5:	68 8e 00 00 00       	push   $0x8e
    3aca:	6a 27                	push   $0x27
    3acc:	e8 da 01 00 00       	call   3cab <init_idt_desc>
    3ad1:	83 c4 10             	add    $0x10,%esp
    3ad4:	6a 00                	push   $0x0
    3ad6:	68 d0 11 00 00       	push   $0x11d0
    3adb:	68 8e 00 00 00       	push   $0x8e
    3ae0:	6a 28                	push   $0x28
    3ae2:	e8 c4 01 00 00       	call   3cab <init_idt_desc>
    3ae7:	83 c4 10             	add    $0x10,%esp
    3aea:	6a 00                	push   $0x0
    3aec:	68 00 12 00 00       	push   $0x1200
    3af1:	68 8e 00 00 00       	push   $0x8e
    3af6:	6a 29                	push   $0x29
    3af8:	e8 ae 01 00 00       	call   3cab <init_idt_desc>
    3afd:	83 c4 10             	add    $0x10,%esp
    3b00:	6a 00                	push   $0x0
    3b02:	68 30 12 00 00       	push   $0x1230
    3b07:	68 8e 00 00 00       	push   $0x8e
    3b0c:	6a 2a                	push   $0x2a
    3b0e:	e8 98 01 00 00       	call   3cab <init_idt_desc>
    3b13:	83 c4 10             	add    $0x10,%esp
    3b16:	6a 00                	push   $0x0
    3b18:	68 60 12 00 00       	push   $0x1260
    3b1d:	68 8e 00 00 00       	push   $0x8e
    3b22:	6a 2b                	push   $0x2b
    3b24:	e8 82 01 00 00       	call   3cab <init_idt_desc>
    3b29:	83 c4 10             	add    $0x10,%esp
    3b2c:	6a 00                	push   $0x0
    3b2e:	68 90 12 00 00       	push   $0x1290
    3b33:	68 8e 00 00 00       	push   $0x8e
    3b38:	6a 2c                	push   $0x2c
    3b3a:	e8 6c 01 00 00       	call   3cab <init_idt_desc>
    3b3f:	83 c4 10             	add    $0x10,%esp
    3b42:	6a 00                	push   $0x0
    3b44:	68 c0 12 00 00       	push   $0x12c0
    3b49:	68 8e 00 00 00       	push   $0x8e
    3b4e:	6a 2d                	push   $0x2d
    3b50:	e8 56 01 00 00       	call   3cab <init_idt_desc>
    3b55:	83 c4 10             	add    $0x10,%esp
    3b58:	6a 00                	push   $0x0
    3b5a:	68 f0 12 00 00       	push   $0x12f0
    3b5f:	68 8e 00 00 00       	push   $0x8e
    3b64:	6a 2e                	push   $0x2e
    3b66:	e8 40 01 00 00       	call   3cab <init_idt_desc>
    3b6b:	83 c4 10             	add    $0x10,%esp
    3b6e:	6a 00                	push   $0x0
    3b70:	68 20 13 00 00       	push   $0x1320
    3b75:	68 8e 00 00 00       	push   $0x8e
    3b7a:	6a 2f                	push   $0x2f
    3b7c:	e8 2a 01 00 00       	call   3cab <init_idt_desc>
    3b81:	83 c4 10             	add    $0x10,%esp
    3b84:	6a 03                	push   $0x3
    3b86:	68 db 13 00 00       	push   $0x13db
    3b8b:	68 8e 00 00 00       	push   $0x8e
    3b90:	68 90 00 00 00       	push   $0x90
    3b95:	e8 11 01 00 00       	call   3cab <init_idt_desc>
    3b9a:	83 c4 10             	add    $0x10,%esp
    3b9d:	83 ec 04             	sub    $0x4,%esp
    3ba0:	6a 68                	push   $0x68
    3ba2:	6a 00                	push   $0x0
    3ba4:	68 e0 94 03 00       	push   $0x394e0
    3ba9:	e8 cb 88 00 00       	call   c479 <memset>
    3bae:	83 c4 10             	add    $0x10,%esp
    3bb1:	c7 05 e8 94 03 00 10 	movl   $0x10,0x394e8
    3bb8:	00 00 00 
    3bbb:	83 ec 0c             	sub    $0xc,%esp
    3bbe:	6a 10                	push   $0x10
    3bc0:	e8 57 01 00 00       	call   3d1c <seg2linear>
    3bc5:	83 c4 10             	add    $0x10,%esp
    3bc8:	ba e0 94 03 00       	mov    $0x394e0,%edx
    3bcd:	01 d0                	add    %edx,%eax
    3bcf:	68 89 00 00 00       	push   $0x89
    3bd4:	6a 67                	push   $0x67
    3bd6:	50                   	push   %eax
    3bd7:	68 60 84 03 00       	push   $0x38460
    3bdc:	e8 8a 01 00 00       	call   3d6b <init_desc>
    3be1:	83 c4 10             	add    $0x10,%esp
    3be4:	66 c7 05 46 95 03 00 	movw   $0x68,0x39546
    3beb:	68 00 
    3bed:	c7 45 f4 00 00 00 00 	movl   $0x0,-0xc(%ebp)
    3bf4:	e9 a5 00 00 00       	jmp    3c9e <init_prot+0x3e5>
    3bf9:	8b 45 f4             	mov    -0xc(%ebp),%eax
    3bfc:	69 c0 98 01 00 00    	imul   $0x198,%eax,%eax
    3c02:	05 a0 a4 03 00       	add    $0x3a4a0,%eax
    3c07:	83 ec 04             	sub    $0x4,%esp
    3c0a:	68 98 01 00 00       	push   $0x198
    3c0f:	6a 00                	push   $0x0
    3c11:	50                   	push   %eax
    3c12:	e8 62 88 00 00       	call   c479 <memset>
    3c17:	83 c4 10             	add    $0x10,%esp
    3c1a:	8b 45 f4             	mov    -0xc(%ebp),%eax
    3c1d:	c1 e0 03             	shl    $0x3,%eax
    3c20:	8d 50 28             	lea    0x28(%eax),%edx
    3c23:	8b 45 f4             	mov    -0xc(%ebp),%eax
    3c26:	69 c0 98 01 00 00    	imul   $0x198,%eax,%eax
    3c2c:	05 e8 a4 03 00       	add    $0x3a4e8,%eax
    3c31:	66 89 10             	mov    %dx,(%eax)
    3c34:	83 7d f4 7a          	cmpl   $0x7a,-0xc(%ebp)
    3c38:	7e 1c                	jle    3c56 <init_prot+0x39d>
    3c3a:	68 b8 00 00 00       	push   $0xb8
    3c3f:	68 20 d0 00 00       	push   $0xd020
    3c44:	68 20 d0 00 00       	push   $0xd020
    3c49:	68 34 d0 00 00       	push   $0xd034
    3c4e:	e8 8a 8a 00 00       	call   c6dd <assertion_failure>
    3c53:	83 c4 10             	add    $0x10,%esp
    3c56:	83 ec 0c             	sub    $0xc,%esp
    3c59:	6a 10                	push   $0x10
    3c5b:	e8 bc 00 00 00       	call   3d1c <seg2linear>
    3c60:	83 c4 10             	add    $0x10,%esp
    3c63:	89 c2                	mov    %eax,%edx
    3c65:	8b 45 f4             	mov    -0xc(%ebp),%eax
    3c68:	69 c0 98 01 00 00    	imul   $0x198,%eax,%eax
    3c6e:	83 c0 40             	add    $0x40,%eax
    3c71:	05 a0 a4 03 00       	add    $0x3a4a0,%eax
    3c76:	83 c0 0a             	add    $0xa,%eax
    3c79:	01 c2                	add    %eax,%edx
    3c7b:	8b 45 f4             	mov    -0xc(%ebp),%eax
    3c7e:	83 c0 05             	add    $0x5,%eax
    3c81:	c1 e0 03             	shl    $0x3,%eax
    3c84:	05 40 84 03 00       	add    $0x38440,%eax
    3c89:	68 82 00 00 00       	push   $0x82
    3c8e:	6a 0f                	push   $0xf
    3c90:	52                   	push   %edx
    3c91:	50                   	push   %eax
    3c92:	e8 d4 00 00 00       	call   3d6b <init_desc>
    3c97:	83 c4 10             	add    $0x10,%esp
    3c9a:	83 45 f4 01          	addl   $0x1,-0xc(%ebp)
    3c9e:	83 7d f4 24          	cmpl   $0x24,-0xc(%ebp)
    3ca2:	0f 8e 51 ff ff ff    	jle    3bf9 <init_prot+0x340>
    3ca8:	90                   	nop
    3ca9:	c9                   	leave  
    3caa:	c3                   	ret    

00003cab <init_idt_desc>:
    3cab:	55                   	push   %ebp
    3cac:	89 e5                	mov    %esp,%ebp
    3cae:	83 ec 1c             	sub    $0x1c,%esp
    3cb1:	8b 4d 08             	mov    0x8(%ebp),%ecx
    3cb4:	8b 55 0c             	mov    0xc(%ebp),%edx
    3cb7:	8b 45 14             	mov    0x14(%ebp),%eax
    3cba:	88 4d ec             	mov    %cl,-0x14(%ebp)
    3cbd:	88 55 e8             	mov    %dl,-0x18(%ebp)
    3cc0:	88 45 e4             	mov    %al,-0x1c(%ebp)
    3cc3:	0f b6 45 ec          	movzbl -0x14(%ebp),%eax
    3cc7:	c1 e0 03             	shl    $0x3,%eax
    3cca:	05 00 9a 03 00       	add    $0x39a00,%eax
    3ccf:	89 45 fc             	mov    %eax,-0x4(%ebp)
    3cd2:	8b 45 10             	mov    0x10(%ebp),%eax
    3cd5:	89 45 f8             	mov    %eax,-0x8(%ebp)
    3cd8:	8b 45 f8             	mov    -0x8(%ebp),%eax
    3cdb:	89 c2                	mov    %eax,%edx
    3cdd:	8b 45 fc             	mov    -0x4(%ebp),%eax
    3ce0:	66 89 10             	mov    %dx,(%eax)
    3ce3:	8b 45 fc             	mov    -0x4(%ebp),%eax
    3ce6:	66 c7 40 02 08 00    	movw   $0x8,0x2(%eax)
    3cec:	8b 45 fc             	mov    -0x4(%ebp),%eax
    3cef:	c6 40 04 00          	movb   $0x0,0x4(%eax)
    3cf3:	0f b6 45 e4          	movzbl -0x1c(%ebp),%eax
    3cf7:	c1 e0 05             	shl    $0x5,%eax
    3cfa:	89 c2                	mov    %eax,%edx
    3cfc:	0f b6 45 e8          	movzbl -0x18(%ebp),%eax
    3d00:	09 d0                	or     %edx,%eax
    3d02:	89 c2                	mov    %eax,%edx
    3d04:	8b 45 fc             	mov    -0x4(%ebp),%eax
    3d07:	88 50 05             	mov    %dl,0x5(%eax)
    3d0a:	8b 45 f8             	mov    -0x8(%ebp),%eax
    3d0d:	c1 e8 10             	shr    $0x10,%eax
    3d10:	89 c2                	mov    %eax,%edx
    3d12:	8b 45 fc             	mov    -0x4(%ebp),%eax
    3d15:	66 89 50 06          	mov    %dx,0x6(%eax)
    3d19:	90                   	nop
    3d1a:	c9                   	leave  
    3d1b:	c3                   	ret    

00003d1c <seg2linear>:
    3d1c:	55                   	push   %ebp
    3d1d:	89 e5                	mov    %esp,%ebp
    3d1f:	83 ec 14             	sub    $0x14,%esp
    3d22:	8b 45 08             	mov    0x8(%ebp),%eax
    3d25:	66 89 45 ec          	mov    %ax,-0x14(%ebp)
    3d29:	0f b7 45 ec          	movzwl -0x14(%ebp),%eax
    3d2d:	66 c1 e8 03          	shr    $0x3,%ax
    3d31:	0f b7 c0             	movzwl %ax,%eax
    3d34:	c1 e0 03             	shl    $0x3,%eax
    3d37:	05 40 84 03 00       	add    $0x38440,%eax
    3d3c:	89 45 fc             	mov    %eax,-0x4(%ebp)
    3d3f:	8b 45 fc             	mov    -0x4(%ebp),%eax
    3d42:	0f b6 40 07          	movzbl 0x7(%eax),%eax
    3d46:	0f b6 c0             	movzbl %al,%eax
    3d49:	c1 e0 18             	shl    $0x18,%eax
    3d4c:	89 c2                	mov    %eax,%edx
    3d4e:	8b 45 fc             	mov    -0x4(%ebp),%eax
    3d51:	0f b6 40 04          	movzbl 0x4(%eax),%eax
    3d55:	0f b6 c0             	movzbl %al,%eax
    3d58:	c1 e0 10             	shl    $0x10,%eax
    3d5b:	09 c2                	or     %eax,%edx
    3d5d:	8b 45 fc             	mov    -0x4(%ebp),%eax
    3d60:	0f b7 40 02          	movzwl 0x2(%eax),%eax
    3d64:	0f b7 c0             	movzwl %ax,%eax
    3d67:	09 d0                	or     %edx,%eax
    3d69:	c9                   	leave  
    3d6a:	c3                   	ret    

00003d6b <init_desc>:
    3d6b:	55                   	push   %ebp
    3d6c:	89 e5                	mov    %esp,%ebp
    3d6e:	83 ec 04             	sub    $0x4,%esp
    3d71:	8b 45 14             	mov    0x14(%ebp),%eax
    3d74:	66 89 45 fc          	mov    %ax,-0x4(%ebp)
    3d78:	8b 45 10             	mov    0x10(%ebp),%eax
    3d7b:	89 c2                	mov    %eax,%edx
    3d7d:	8b 45 08             	mov    0x8(%ebp),%eax
    3d80:	66 89 10             	mov    %dx,(%eax)
    3d83:	8b 45 0c             	mov    0xc(%ebp),%eax
    3d86:	89 c2                	mov    %eax,%edx
    3d88:	8b 45 08             	mov    0x8(%ebp),%eax
    3d8b:	66 89 50 02          	mov    %dx,0x2(%eax)
    3d8f:	8b 45 0c             	mov    0xc(%ebp),%eax
    3d92:	c1 e8 10             	shr    $0x10,%eax
    3d95:	89 c2                	mov    %eax,%edx
    3d97:	8b 45 08             	mov    0x8(%ebp),%eax
    3d9a:	88 50 04             	mov    %dl,0x4(%eax)
    3d9d:	0f b7 45 fc          	movzwl -0x4(%ebp),%eax
    3da1:	89 c2                	mov    %eax,%edx
    3da3:	8b 45 08             	mov    0x8(%ebp),%eax
    3da6:	88 50 05             	mov    %dl,0x5(%eax)
    3da9:	8b 45 10             	mov    0x10(%ebp),%eax
    3dac:	c1 e8 10             	shr    $0x10,%eax
    3daf:	83 e0 0f             	and    $0xf,%eax
    3db2:	89 c2                	mov    %eax,%edx
    3db4:	0f b7 45 fc          	movzwl -0x4(%ebp),%eax
    3db8:	66 c1 e8 08          	shr    $0x8,%ax
    3dbc:	83 e0 f0             	and    $0xfffffff0,%eax
    3dbf:	09 c2                	or     %eax,%edx
    3dc1:	8b 45 08             	mov    0x8(%ebp),%eax
    3dc4:	88 50 06             	mov    %dl,0x6(%eax)
    3dc7:	8b 45 0c             	mov    0xc(%ebp),%eax
    3dca:	c1 e8 18             	shr    $0x18,%eax
    3dcd:	89 c2                	mov    %eax,%edx
    3dcf:	8b 45 08             	mov    0x8(%ebp),%eax
    3dd2:	88 50 07             	mov    %dl,0x7(%eax)
    3dd5:	90                   	nop
    3dd6:	c9                   	leave  
    3dd7:	c3                   	ret    

00003dd8 <exception_handler>:
    3dd8:	55                   	push   %ebp
    3dd9:	89 e5                	mov    %esp,%ebp
    3ddb:	57                   	push   %edi
    3ddc:	56                   	push   %esi
    3ddd:	53                   	push   %ebx
    3dde:	81 ec 1c 05 00 00    	sub    $0x51c,%esp
    3de4:	c7 45 e0 74 00 00 00 	movl   $0x74,-0x20(%ebp)
    3deb:	8d 85 e0 fa ff ff    	lea    -0x520(%ebp),%eax
    3df1:	bb a0 d0 00 00       	mov    $0xd0a0,%ebx
    3df6:	ba 40 01 00 00       	mov    $0x140,%edx
    3dfb:	89 c7                	mov    %eax,%edi
    3dfd:	89 de                	mov    %ebx,%esi
    3dff:	89 d1                	mov    %edx,%ecx
    3e01:	f3 a5                	rep movsl %ds:(%esi),%es:(%edi)
    3e03:	c7 05 a4 99 03 00 00 	movl   $0x0,0x399a4
    3e0a:	00 00 00 
    3e0d:	c7 45 e4 00 00 00 00 	movl   $0x0,-0x1c(%ebp)
    3e14:	eb 14                	jmp    3e2a <exception_handler+0x52>
    3e16:	83 ec 0c             	sub    $0xc,%esp
    3e19:	68 53 d0 00 00       	push   $0xd053
    3e1e:	e8 ad 27 00 00       	call   65d0 <disp_str>
    3e23:	83 c4 10             	add    $0x10,%esp
    3e26:	83 45 e4 01          	addl   $0x1,-0x1c(%ebp)
    3e2a:	81 7d e4 8f 01 00 00 	cmpl   $0x18f,-0x1c(%ebp)
    3e31:	7e e3                	jle    3e16 <exception_handler+0x3e>
    3e33:	c7 05 a4 99 03 00 00 	movl   $0x0,0x399a4
    3e3a:	00 00 00 
    3e3d:	83 ec 08             	sub    $0x8,%esp
    3e40:	ff 75 e0             	pushl  -0x20(%ebp)
    3e43:	68 55 d0 00 00       	push   $0xd055
    3e48:	e8 c1 27 00 00       	call   660e <disp_color_str>
    3e4d:	83 c4 10             	add    $0x10,%esp
    3e50:	8d 85 e0 fa ff ff    	lea    -0x520(%ebp),%eax
    3e56:	8b 55 08             	mov    0x8(%ebp),%edx
    3e59:	c1 e2 06             	shl    $0x6,%edx
    3e5c:	01 d0                	add    %edx,%eax
    3e5e:	83 ec 08             	sub    $0x8,%esp
    3e61:	ff 75 e0             	pushl  -0x20(%ebp)
    3e64:	50                   	push   %eax
    3e65:	e8 a4 27 00 00       	call   660e <disp_color_str>
    3e6a:	83 c4 10             	add    $0x10,%esp
    3e6d:	83 ec 08             	sub    $0x8,%esp
    3e70:	ff 75 e0             	pushl  -0x20(%ebp)
    3e73:	68 65 d0 00 00       	push   $0xd065
    3e78:	e8 91 27 00 00       	call   660e <disp_color_str>
    3e7d:	83 c4 10             	add    $0x10,%esp
    3e80:	83 ec 08             	sub    $0x8,%esp
    3e83:	ff 75 e0             	pushl  -0x20(%ebp)
    3e86:	68 68 d0 00 00       	push   $0xd068
    3e8b:	e8 7e 27 00 00       	call   660e <disp_color_str>
    3e90:	83 c4 10             	add    $0x10,%esp
    3e93:	83 ec 0c             	sub    $0xc,%esp
    3e96:	ff 75 18             	pushl  0x18(%ebp)
    3e99:	e8 0d 2b 00 00       	call   69ab <disp_int>
    3e9e:	83 c4 10             	add    $0x10,%esp
    3ea1:	83 ec 08             	sub    $0x8,%esp
    3ea4:	ff 75 e0             	pushl  -0x20(%ebp)
    3ea7:	68 70 d0 00 00       	push   $0xd070
    3eac:	e8 5d 27 00 00       	call   660e <disp_color_str>
    3eb1:	83 c4 10             	add    $0x10,%esp
    3eb4:	83 ec 0c             	sub    $0xc,%esp
    3eb7:	ff 75 14             	pushl  0x14(%ebp)
    3eba:	e8 ec 2a 00 00       	call   69ab <disp_int>
    3ebf:	83 c4 10             	add    $0x10,%esp
    3ec2:	83 ec 08             	sub    $0x8,%esp
    3ec5:	ff 75 e0             	pushl  -0x20(%ebp)
    3ec8:	68 74 d0 00 00       	push   $0xd074
    3ecd:	e8 3c 27 00 00       	call   660e <disp_color_str>
    3ed2:	83 c4 10             	add    $0x10,%esp
    3ed5:	83 ec 0c             	sub    $0xc,%esp
    3ed8:	ff 75 10             	pushl  0x10(%ebp)
    3edb:	e8 cb 2a 00 00       	call   69ab <disp_int>
    3ee0:	83 c4 10             	add    $0x10,%esp
    3ee3:	83 7d 0c ff          	cmpl   $0xffffffff,0xc(%ebp)
    3ee7:	74 21                	je     3f0a <exception_handler+0x132>
    3ee9:	83 ec 08             	sub    $0x8,%esp
    3eec:	ff 75 e0             	pushl  -0x20(%ebp)
    3eef:	68 79 d0 00 00       	push   $0xd079
    3ef4:	e8 15 27 00 00       	call   660e <disp_color_str>
    3ef9:	83 c4 10             	add    $0x10,%esp
    3efc:	83 ec 0c             	sub    $0xc,%esp
    3eff:	ff 75 0c             	pushl  0xc(%ebp)
    3f02:	e8 a4 2a 00 00       	call   69ab <disp_int>
    3f07:	83 c4 10             	add    $0x10,%esp
    3f0a:	90                   	nop
    3f0b:	8d 65 f4             	lea    -0xc(%ebp),%esp
    3f0e:	5b                   	pop    %ebx
    3f0f:	5e                   	pop    %esi
    3f10:	5f                   	pop    %edi
    3f11:	5d                   	pop    %ebp
    3f12:	c3                   	ret    

00003f13 <schedule>:
    3f13:	55                   	push   %ebp
    3f14:	89 e5                	mov    %esp,%ebp
    3f16:	83 ec 10             	sub    $0x10,%esp
    3f19:	c7 45 f8 00 00 00 00 	movl   $0x0,-0x8(%ebp)
    3f20:	eb 74                	jmp    3f96 <schedule+0x83>
    3f22:	c7 45 fc a0 a4 03 00 	movl   $0x3a4a0,-0x4(%ebp)
    3f29:	eb 2d                	jmp    3f58 <schedule+0x45>
    3f2b:	8b 45 fc             	mov    -0x4(%ebp),%eax
    3f2e:	8b 40 74             	mov    0x74(%eax),%eax
    3f31:	85 c0                	test   %eax,%eax
    3f33:	75 1c                	jne    3f51 <schedule+0x3e>
    3f35:	8b 45 fc             	mov    -0x4(%ebp),%eax
    3f38:	8b 40 5c             	mov    0x5c(%eax),%eax
    3f3b:	39 45 f8             	cmp    %eax,-0x8(%ebp)
    3f3e:	7d 11                	jge    3f51 <schedule+0x3e>
    3f40:	8b 45 fc             	mov    -0x4(%ebp),%eax
    3f43:	8b 40 5c             	mov    0x5c(%eax),%eax
    3f46:	89 45 f8             	mov    %eax,-0x8(%ebp)
    3f49:	8b 45 fc             	mov    -0x4(%ebp),%eax
    3f4c:	a3 80 a4 03 00       	mov    %eax,0x3a480
    3f51:	81 45 fc 98 01 00 00 	addl   $0x198,-0x4(%ebp)
    3f58:	81 7d fc 00 de 03 00 	cmpl   $0x3de00,-0x4(%ebp)
    3f5f:	76 ca                	jbe    3f2b <schedule+0x18>
    3f61:	83 7d f8 00          	cmpl   $0x0,-0x8(%ebp)
    3f65:	75 2f                	jne    3f96 <schedule+0x83>
    3f67:	c7 45 fc a0 a4 03 00 	movl   $0x3a4a0,-0x4(%ebp)
    3f6e:	eb 1d                	jmp    3f8d <schedule+0x7a>
    3f70:	8b 45 fc             	mov    -0x4(%ebp),%eax
    3f73:	8b 40 74             	mov    0x74(%eax),%eax
    3f76:	85 c0                	test   %eax,%eax
    3f78:	75 0c                	jne    3f86 <schedule+0x73>
    3f7a:	8b 45 fc             	mov    -0x4(%ebp),%eax
    3f7d:	8b 50 60             	mov    0x60(%eax),%edx
    3f80:	8b 45 fc             	mov    -0x4(%ebp),%eax
    3f83:	89 50 5c             	mov    %edx,0x5c(%eax)
    3f86:	81 45 fc 98 01 00 00 	addl   $0x198,-0x4(%ebp)
    3f8d:	81 7d fc 00 de 03 00 	cmpl   $0x3de00,-0x4(%ebp)
    3f94:	76 da                	jbe    3f70 <schedule+0x5d>
    3f96:	83 7d f8 00          	cmpl   $0x0,-0x8(%ebp)
    3f9a:	74 86                	je     3f22 <schedule+0xf>
    3f9c:	90                   	nop
    3f9d:	c9                   	leave  
    3f9e:	c3                   	ret    

00003f9f <sys_sendrec>:
    3f9f:	55                   	push   %ebp
    3fa0:	89 e5                	mov    %esp,%ebp
    3fa2:	83 ec 18             	sub    $0x18,%esp
    3fa5:	a1 20 84 03 00       	mov    0x38420,%eax
    3faa:	85 c0                	test   %eax,%eax
    3fac:	74 19                	je     3fc7 <sys_sendrec+0x28>
    3fae:	6a 46                	push   $0x46
    3fb0:	68 a0 d5 00 00       	push   $0xd5a0
    3fb5:	68 a0 d5 00 00       	push   $0xd5a0
    3fba:	68 ae d5 00 00       	push   $0xd5ae
    3fbf:	e8 19 87 00 00       	call   c6dd <assertion_failure>
    3fc4:	83 c4 10             	add    $0x10,%esp
    3fc7:	83 7d 0c 00          	cmpl   $0x0,0xc(%ebp)
    3fcb:	78 06                	js     3fd3 <sys_sendrec+0x34>
    3fcd:	83 7d 0c 24          	cmpl   $0x24,0xc(%ebp)
    3fd1:	7e 25                	jle    3ff8 <sys_sendrec+0x59>
    3fd3:	83 7d 0c 2f          	cmpl   $0x2f,0xc(%ebp)
    3fd7:	74 1f                	je     3ff8 <sys_sendrec+0x59>
    3fd9:	83 7d 0c f6          	cmpl   $0xfffffff6,0xc(%ebp)
    3fdd:	74 19                	je     3ff8 <sys_sendrec+0x59>
    3fdf:	6a 49                	push   $0x49
    3fe1:	68 a0 d5 00 00       	push   $0xd5a0
    3fe6:	68 a0 d5 00 00       	push   $0xd5a0
    3feb:	68 c0 d5 00 00       	push   $0xd5c0
    3ff0:	e8 e8 86 00 00       	call   c6dd <assertion_failure>
    3ff5:	83 c4 10             	add    $0x10,%esp
    3ff8:	c7 45 f4 00 00 00 00 	movl   $0x0,-0xc(%ebp)
    3fff:	8b 45 14             	mov    0x14(%ebp),%eax
    4002:	2d a0 a4 03 00       	sub    $0x3a4a0,%eax
    4007:	c1 f8 03             	sar    $0x3,%eax
    400a:	69 c0 fb fa fa fa    	imul   $0xfafafafb,%eax,%eax
    4010:	89 45 f0             	mov    %eax,-0x10(%ebp)
    4013:	83 ec 08             	sub    $0x8,%esp
    4016:	ff 75 10             	pushl  0x10(%ebp)
    4019:	ff 75 f0             	pushl  -0x10(%ebp)
    401c:	e8 e6 00 00 00       	call   4107 <va2la>
    4021:	83 c4 10             	add    $0x10,%esp
    4024:	89 45 ec             	mov    %eax,-0x14(%ebp)
    4027:	8b 45 ec             	mov    -0x14(%ebp),%eax
    402a:	8b 55 f0             	mov    -0x10(%ebp),%edx
    402d:	89 10                	mov    %edx,(%eax)
    402f:	8b 45 ec             	mov    -0x14(%ebp),%eax
    4032:	8b 00                	mov    (%eax),%eax
    4034:	39 45 0c             	cmp    %eax,0xc(%ebp)
    4037:	75 19                	jne    4052 <sys_sendrec+0xb3>
    4039:	6a 50                	push   $0x50
    403b:	68 a0 d5 00 00       	push   $0xd5a0
    4040:	68 a0 d5 00 00       	push   $0xd5a0
    4045:	68 1e d6 00 00       	push   $0xd61e
    404a:	e8 8e 86 00 00       	call   c6dd <assertion_failure>
    404f:	83 c4 10             	add    $0x10,%esp
    4052:	83 7d 08 01          	cmpl   $0x1,0x8(%ebp)
    4056:	75 22                	jne    407a <sys_sendrec+0xdb>
    4058:	83 ec 04             	sub    $0x4,%esp
    405b:	ff 75 10             	pushl  0x10(%ebp)
    405e:	ff 75 0c             	pushl  0xc(%ebp)
    4061:	ff 75 14             	pushl  0x14(%ebp)
    4064:	e8 81 02 00 00       	call   42ea <msg_send>
    4069:	83 c4 10             	add    $0x10,%esp
    406c:	89 45 f4             	mov    %eax,-0xc(%ebp)
    406f:	83 7d f4 00          	cmpl   $0x0,-0xc(%ebp)
    4073:	74 41                	je     40b6 <sys_sendrec+0x117>
    4075:	8b 45 f4             	mov    -0xc(%ebp),%eax
    4078:	eb 41                	jmp    40bb <sys_sendrec+0x11c>
    407a:	83 7d 08 02          	cmpl   $0x2,0x8(%ebp)
    407e:	75 22                	jne    40a2 <sys_sendrec+0x103>
    4080:	83 ec 04             	sub    $0x4,%esp
    4083:	ff 75 10             	pushl  0x10(%ebp)
    4086:	ff 75 0c             	pushl  0xc(%ebp)
    4089:	ff 75 14             	pushl  0x14(%ebp)
    408c:	e8 89 06 00 00       	call   471a <msg_receive>
    4091:	83 c4 10             	add    $0x10,%esp
    4094:	89 45 f4             	mov    %eax,-0xc(%ebp)
    4097:	83 7d f4 00          	cmpl   $0x0,-0xc(%ebp)
    409b:	74 19                	je     40b6 <sys_sendrec+0x117>
    409d:	8b 45 f4             	mov    -0xc(%ebp),%eax
    40a0:	eb 19                	jmp    40bb <sys_sendrec+0x11c>
    40a2:	6a 02                	push   $0x2
    40a4:	6a 01                	push   $0x1
    40a6:	ff 75 08             	pushl  0x8(%ebp)
    40a9:	68 38 d6 00 00       	push   $0xd638
    40ae:	e8 93 dc ff ff       	call   1d46 <panic>
    40b3:	83 c4 10             	add    $0x10,%esp
    40b6:	b8 00 00 00 00       	mov    $0x0,%eax
    40bb:	c9                   	leave  
    40bc:	c3                   	ret    

000040bd <ldt_seg_linear>:
    40bd:	55                   	push   %ebp
    40be:	89 e5                	mov    %esp,%ebp
    40c0:	83 ec 10             	sub    $0x10,%esp
    40c3:	8b 45 0c             	mov    0xc(%ebp),%eax
    40c6:	83 c0 08             	add    $0x8,%eax
    40c9:	8d 14 c5 00 00 00 00 	lea    0x0(,%eax,8),%edx
    40d0:	8b 45 08             	mov    0x8(%ebp),%eax
    40d3:	01 d0                	add    %edx,%eax
    40d5:	83 c0 0a             	add    $0xa,%eax
    40d8:	89 45 fc             	mov    %eax,-0x4(%ebp)
    40db:	8b 45 fc             	mov    -0x4(%ebp),%eax
    40de:	0f b6 40 07          	movzbl 0x7(%eax),%eax
    40e2:	0f b6 c0             	movzbl %al,%eax
    40e5:	c1 e0 18             	shl    $0x18,%eax
    40e8:	89 c2                	mov    %eax,%edx
    40ea:	8b 45 fc             	mov    -0x4(%ebp),%eax
    40ed:	0f b6 40 04          	movzbl 0x4(%eax),%eax
    40f1:	0f b6 c0             	movzbl %al,%eax
    40f4:	c1 e0 10             	shl    $0x10,%eax
    40f7:	09 c2                	or     %eax,%edx
    40f9:	8b 45 fc             	mov    -0x4(%ebp),%eax
    40fc:	0f b7 40 02          	movzwl 0x2(%eax),%eax
    4100:	0f b7 c0             	movzwl %ax,%eax
    4103:	09 d0                	or     %edx,%eax
    4105:	c9                   	leave  
    4106:	c3                   	ret    

00004107 <va2la>:
    4107:	55                   	push   %ebp
    4108:	89 e5                	mov    %esp,%ebp
    410a:	83 ec 18             	sub    $0x18,%esp
    410d:	8b 45 08             	mov    0x8(%ebp),%eax
    4110:	69 c0 98 01 00 00    	imul   $0x198,%eax,%eax
    4116:	05 a0 a4 03 00       	add    $0x3a4a0,%eax
    411b:	89 45 f4             	mov    %eax,-0xc(%ebp)
    411e:	6a 01                	push   $0x1
    4120:	ff 75 f4             	pushl  -0xc(%ebp)
    4123:	e8 95 ff ff ff       	call   40bd <ldt_seg_linear>
    4128:	83 c4 08             	add    $0x8,%esp
    412b:	89 45 f0             	mov    %eax,-0x10(%ebp)
    412e:	8b 55 0c             	mov    0xc(%ebp),%edx
    4131:	8b 45 f0             	mov    -0x10(%ebp),%eax
    4134:	01 d0                	add    %edx,%eax
    4136:	89 45 ec             	mov    %eax,-0x14(%ebp)
    4139:	83 7d 08 08          	cmpl   $0x8,0x8(%ebp)
    413d:	7f 24                	jg     4163 <va2la+0x5c>
    413f:	8b 45 0c             	mov    0xc(%ebp),%eax
    4142:	39 45 ec             	cmp    %eax,-0x14(%ebp)
    4145:	74 1c                	je     4163 <va2la+0x5c>
    4147:	68 90 00 00 00       	push   $0x90
    414c:	68 a0 d5 00 00       	push   $0xd5a0
    4151:	68 a0 d5 00 00       	push   $0xd5a0
    4156:	68 72 d6 00 00       	push   $0xd672
    415b:	e8 7d 85 00 00       	call   c6dd <assertion_failure>
    4160:	83 c4 10             	add    $0x10,%esp
    4163:	8b 45 ec             	mov    -0x14(%ebp),%eax
    4166:	c9                   	leave  
    4167:	c3                   	ret    

00004168 <reset_msg>:
    4168:	55                   	push   %ebp
    4169:	89 e5                	mov    %esp,%ebp
    416b:	83 ec 08             	sub    $0x8,%esp
    416e:	83 ec 04             	sub    $0x4,%esp
    4171:	6a 30                	push   $0x30
    4173:	6a 00                	push   $0x0
    4175:	ff 75 08             	pushl  0x8(%ebp)
    4178:	e8 fc 82 00 00       	call   c479 <memset>
    417d:	83 c4 10             	add    $0x10,%esp
    4180:	90                   	nop
    4181:	c9                   	leave  
    4182:	c3                   	ret    

00004183 <block>:
    4183:	55                   	push   %ebp
    4184:	89 e5                	mov    %esp,%ebp
    4186:	83 ec 08             	sub    $0x8,%esp
    4189:	8b 45 08             	mov    0x8(%ebp),%eax
    418c:	8b 40 74             	mov    0x74(%eax),%eax
    418f:	85 c0                	test   %eax,%eax
    4191:	75 1c                	jne    41af <block+0x2c>
    4193:	68 b1 00 00 00       	push   $0xb1
    4198:	68 a0 d5 00 00       	push   $0xd5a0
    419d:	68 a0 d5 00 00       	push   $0xd5a0
    41a2:	68 80 d6 00 00       	push   $0xd680
    41a7:	e8 31 85 00 00       	call   c6dd <assertion_failure>
    41ac:	83 c4 10             	add    $0x10,%esp
    41af:	e8 5f fd ff ff       	call   3f13 <schedule>
    41b4:	90                   	nop
    41b5:	c9                   	leave  
    41b6:	c3                   	ret    

000041b7 <unblock>:
    41b7:	55                   	push   %ebp
    41b8:	89 e5                	mov    %esp,%ebp
    41ba:	83 ec 08             	sub    $0x8,%esp
    41bd:	8b 45 08             	mov    0x8(%ebp),%eax
    41c0:	8b 40 74             	mov    0x74(%eax),%eax
    41c3:	85 c0                	test   %eax,%eax
    41c5:	74 1c                	je     41e3 <unblock+0x2c>
    41c7:	68 c0 00 00 00       	push   $0xc0
    41cc:	68 a0 d5 00 00       	push   $0xd5a0
    41d1:	68 a0 d5 00 00       	push   $0xd5a0
    41d6:	68 8b d6 00 00       	push   $0xd68b
    41db:	e8 fd 84 00 00       	call   c6dd <assertion_failure>
    41e0:	83 c4 10             	add    $0x10,%esp
    41e3:	90                   	nop
    41e4:	c9                   	leave  
    41e5:	c3                   	ret    

000041e6 <deadlock>:
    41e6:	55                   	push   %ebp
    41e7:	89 e5                	mov    %esp,%ebp
    41e9:	83 ec 18             	sub    $0x18,%esp
    41ec:	8b 45 0c             	mov    0xc(%ebp),%eax
    41ef:	69 c0 98 01 00 00    	imul   $0x198,%eax,%eax
    41f5:	05 a0 a4 03 00       	add    $0x3a4a0,%eax
    41fa:	89 45 f4             	mov    %eax,-0xc(%ebp)
    41fd:	8b 45 f4             	mov    -0xc(%ebp),%eax
    4200:	8b 40 74             	mov    0x74(%eax),%eax
    4203:	83 e0 02             	and    $0x2,%eax
    4206:	85 c0                	test   %eax,%eax
    4208:	0f 84 d4 00 00 00    	je     42e2 <deadlock+0xfc>
    420e:	8b 45 f4             	mov    -0xc(%ebp),%eax
    4211:	8b 80 80 00 00 00    	mov    0x80(%eax),%eax
    4217:	39 45 08             	cmp    %eax,0x8(%ebp)
    421a:	0f 85 a6 00 00 00    	jne    42c6 <deadlock+0xe0>
    4220:	8b 45 0c             	mov    0xc(%ebp),%eax
    4223:	69 c0 98 01 00 00    	imul   $0x198,%eax,%eax
    4229:	05 a0 a4 03 00       	add    $0x3a4a0,%eax
    422e:	89 45 f4             	mov    %eax,-0xc(%ebp)
    4231:	8b 45 f4             	mov    -0xc(%ebp),%eax
    4234:	83 c0 64             	add    $0x64,%eax
    4237:	83 ec 08             	sub    $0x8,%esp
    423a:	50                   	push   %eax
    423b:	68 9b d6 00 00       	push   $0xd69b
    4240:	e8 c0 7e 00 00       	call   c105 <printl>
    4245:	83 c4 10             	add    $0x10,%esp
    4248:	8b 45 f4             	mov    -0xc(%ebp),%eax
    424b:	8b 40 78             	mov    0x78(%eax),%eax
    424e:	85 c0                	test   %eax,%eax
    4250:	75 1c                	jne    426e <deadlock+0x88>
    4252:	68 dc 00 00 00       	push   $0xdc
    4257:	68 a0 d5 00 00       	push   $0xd5a0
    425c:	68 a0 d5 00 00       	push   $0xd5a0
    4261:	68 a1 d6 00 00       	push   $0xd6a1
    4266:	e8 72 84 00 00       	call   c6dd <assertion_failure>
    426b:	83 c4 10             	add    $0x10,%esp
    426e:	8b 45 f4             	mov    -0xc(%ebp),%eax
    4271:	8b 80 80 00 00 00    	mov    0x80(%eax),%eax
    4277:	69 c0 98 01 00 00    	imul   $0x198,%eax,%eax
    427d:	05 a0 a4 03 00       	add    $0x3a4a0,%eax
    4282:	89 45 f4             	mov    %eax,-0xc(%ebp)
    4285:	8b 45 f4             	mov    -0xc(%ebp),%eax
    4288:	83 c0 64             	add    $0x64,%eax
    428b:	83 ec 08             	sub    $0x8,%esp
    428e:	50                   	push   %eax
    428f:	68 aa d6 00 00       	push   $0xd6aa
    4294:	e8 6c 7e 00 00       	call   c105 <printl>
    4299:	83 c4 10             	add    $0x10,%esp
    429c:	8b 45 08             	mov    0x8(%ebp),%eax
    429f:	69 c0 98 01 00 00    	imul   $0x198,%eax,%eax
    42a5:	05 a0 a4 03 00       	add    $0x3a4a0,%eax
    42aa:	39 45 f4             	cmp    %eax,-0xc(%ebp)
    42ad:	75 99                	jne    4248 <deadlock+0x62>
    42af:	83 ec 0c             	sub    $0xc,%esp
    42b2:	68 af d6 00 00       	push   $0xd6af
    42b7:	e8 49 7e 00 00       	call   c105 <printl>
    42bc:	83 c4 10             	add    $0x10,%esp
    42bf:	b8 01 00 00 00       	mov    $0x1,%eax
    42c4:	eb 22                	jmp    42e8 <deadlock+0x102>
    42c6:	8b 45 f4             	mov    -0xc(%ebp),%eax
    42c9:	8b 80 80 00 00 00    	mov    0x80(%eax),%eax
    42cf:	69 c0 98 01 00 00    	imul   $0x198,%eax,%eax
    42d5:	05 a0 a4 03 00       	add    $0x3a4a0,%eax
    42da:	89 45 f4             	mov    %eax,-0xc(%ebp)
    42dd:	e9 1b ff ff ff       	jmp    41fd <deadlock+0x17>
    42e2:	90                   	nop
    42e3:	b8 00 00 00 00       	mov    $0x0,%eax
    42e8:	c9                   	leave  
    42e9:	c3                   	ret    

000042ea <msg_send>:
    42ea:	55                   	push   %ebp
    42eb:	89 e5                	mov    %esp,%ebp
    42ed:	53                   	push   %ebx
    42ee:	83 ec 14             	sub    $0x14,%esp
    42f1:	8b 45 08             	mov    0x8(%ebp),%eax
    42f4:	89 45 f0             	mov    %eax,-0x10(%ebp)
    42f7:	8b 45 0c             	mov    0xc(%ebp),%eax
    42fa:	69 c0 98 01 00 00    	imul   $0x198,%eax,%eax
    4300:	05 a0 a4 03 00       	add    $0x3a4a0,%eax
    4305:	89 45 ec             	mov    %eax,-0x14(%ebp)
    4308:	8b 45 f0             	mov    -0x10(%ebp),%eax
    430b:	2d a0 a4 03 00       	sub    $0x3a4a0,%eax
    4310:	c1 f8 03             	sar    $0x3,%eax
    4313:	69 c0 fb fa fa fa    	imul   $0xfafafafb,%eax,%eax
    4319:	39 45 0c             	cmp    %eax,0xc(%ebp)
    431c:	75 1c                	jne    433a <msg_send+0x50>
    431e:	68 00 01 00 00       	push   $0x100
    4323:	68 a0 d5 00 00       	push   $0xd5a0
    4328:	68 a0 d5 00 00       	push   $0xd5a0
    432d:	68 b3 d6 00 00       	push   $0xd6b3
    4332:	e8 a6 83 00 00       	call   c6dd <assertion_failure>
    4337:	83 c4 10             	add    $0x10,%esp
    433a:	8b 45 f0             	mov    -0x10(%ebp),%eax
    433d:	2d a0 a4 03 00       	sub    $0x3a4a0,%eax
    4342:	c1 f8 03             	sar    $0x3,%eax
    4345:	69 c0 fb fa fa fa    	imul   $0xfafafafb,%eax,%eax
    434b:	83 ec 08             	sub    $0x8,%esp
    434e:	ff 75 0c             	pushl  0xc(%ebp)
    4351:	50                   	push   %eax
    4352:	e8 8f fe ff ff       	call   41e6 <deadlock>
    4357:	83 c4 10             	add    $0x10,%esp
    435a:	85 c0                	test   %eax,%eax
    435c:	74 1e                	je     437c <msg_send+0x92>
    435e:	8b 45 ec             	mov    -0x14(%ebp),%eax
    4361:	8d 50 64             	lea    0x64(%eax),%edx
    4364:	8b 45 f0             	mov    -0x10(%ebp),%eax
    4367:	83 c0 64             	add    $0x64,%eax
    436a:	83 ec 04             	sub    $0x4,%esp
    436d:	52                   	push   %edx
    436e:	50                   	push   %eax
    436f:	68 cc d6 00 00       	push   $0xd6cc
    4374:	e8 cd d9 ff ff       	call   1d46 <panic>
    4379:	83 c4 10             	add    $0x10,%esp
    437c:	8b 45 ec             	mov    -0x14(%ebp),%eax
    437f:	8b 40 74             	mov    0x74(%eax),%eax
    4382:	83 e0 04             	and    $0x4,%eax
    4385:	85 c0                	test   %eax,%eax
    4387:	0f 84 2f 02 00 00    	je     45bc <msg_send+0x2d2>
    438d:	8b 45 ec             	mov    -0x14(%ebp),%eax
    4390:	8b 40 7c             	mov    0x7c(%eax),%eax
    4393:	8b 55 f0             	mov    -0x10(%ebp),%edx
    4396:	81 ea a0 a4 03 00    	sub    $0x3a4a0,%edx
    439c:	c1 fa 03             	sar    $0x3,%edx
    439f:	69 d2 fb fa fa fa    	imul   $0xfafafafb,%edx,%edx
    43a5:	39 d0                	cmp    %edx,%eax
    43a7:	74 0f                	je     43b8 <msg_send+0xce>
    43a9:	8b 45 ec             	mov    -0x14(%ebp),%eax
    43ac:	8b 40 7c             	mov    0x7c(%eax),%eax
    43af:	83 f8 2f             	cmp    $0x2f,%eax
    43b2:	0f 85 04 02 00 00    	jne    45bc <msg_send+0x2d2>
    43b8:	8b 45 ec             	mov    -0x14(%ebp),%eax
    43bb:	8b 40 78             	mov    0x78(%eax),%eax
    43be:	85 c0                	test   %eax,%eax
    43c0:	75 1c                	jne    43de <msg_send+0xf4>
    43c2:	68 0a 01 00 00       	push   $0x10a
    43c7:	68 a0 d5 00 00       	push   $0xd5a0
    43cc:	68 a0 d5 00 00       	push   $0xd5a0
    43d1:	68 e0 d6 00 00       	push   $0xd6e0
    43d6:	e8 02 83 00 00       	call   c6dd <assertion_failure>
    43db:	83 c4 10             	add    $0x10,%esp
    43de:	83 7d 10 00          	cmpl   $0x0,0x10(%ebp)
    43e2:	75 1c                	jne    4400 <msg_send+0x116>
    43e4:	68 0b 01 00 00       	push   $0x10b
    43e9:	68 a0 d5 00 00       	push   $0xd5a0
    43ee:	68 a0 d5 00 00       	push   $0xd5a0
    43f3:	68 ee d6 00 00       	push   $0xd6ee
    43f8:	e8 e0 82 00 00       	call   c6dd <assertion_failure>
    43fd:	83 c4 10             	add    $0x10,%esp
    4400:	8b 45 f0             	mov    -0x10(%ebp),%eax
    4403:	2d a0 a4 03 00       	sub    $0x3a4a0,%eax
    4408:	c1 f8 03             	sar    $0x3,%eax
    440b:	69 c0 fb fa fa fa    	imul   $0xfafafafb,%eax,%eax
    4411:	83 ec 08             	sub    $0x8,%esp
    4414:	ff 75 10             	pushl  0x10(%ebp)
    4417:	50                   	push   %eax
    4418:	e8 ea fc ff ff       	call   4107 <va2la>
    441d:	83 c4 10             	add    $0x10,%esp
    4420:	89 c3                	mov    %eax,%ebx
    4422:	8b 45 ec             	mov    -0x14(%ebp),%eax
    4425:	8b 40 78             	mov    0x78(%eax),%eax
    4428:	83 ec 08             	sub    $0x8,%esp
    442b:	50                   	push   %eax
    442c:	ff 75 0c             	pushl  0xc(%ebp)
    442f:	e8 d3 fc ff ff       	call   4107 <va2la>
    4434:	83 c4 10             	add    $0x10,%esp
    4437:	83 ec 04             	sub    $0x4,%esp
    443a:	6a 30                	push   $0x30
    443c:	53                   	push   %ebx
    443d:	50                   	push   %eax
    443e:	e8 0d 80 00 00       	call   c450 <memcpy>
    4443:	83 c4 10             	add    $0x10,%esp
    4446:	8b 45 ec             	mov    -0x14(%ebp),%eax
    4449:	c7 40 78 00 00 00 00 	movl   $0x0,0x78(%eax)
    4450:	8b 45 ec             	mov    -0x14(%ebp),%eax
    4453:	8b 40 74             	mov    0x74(%eax),%eax
    4456:	83 e0 fb             	and    $0xfffffffb,%eax
    4459:	89 c2                	mov    %eax,%edx
    445b:	8b 45 ec             	mov    -0x14(%ebp),%eax
    445e:	89 50 74             	mov    %edx,0x74(%eax)
    4461:	8b 45 ec             	mov    -0x14(%ebp),%eax
    4464:	c7 40 7c 39 00 00 00 	movl   $0x39,0x7c(%eax)
    446b:	83 ec 0c             	sub    $0xc,%esp
    446e:	ff 75 ec             	pushl  -0x14(%ebp)
    4471:	e8 41 fd ff ff       	call   41b7 <unblock>
    4476:	83 c4 10             	add    $0x10,%esp
    4479:	8b 45 ec             	mov    -0x14(%ebp),%eax
    447c:	8b 40 74             	mov    0x74(%eax),%eax
    447f:	85 c0                	test   %eax,%eax
    4481:	74 1c                	je     449f <msg_send+0x1b5>
    4483:	68 15 01 00 00       	push   $0x115
    4488:	68 a0 d5 00 00       	push   $0xd5a0
    448d:	68 a0 d5 00 00       	push   $0xd5a0
    4492:	68 f0 d6 00 00       	push   $0xd6f0
    4497:	e8 41 82 00 00       	call   c6dd <assertion_failure>
    449c:	83 c4 10             	add    $0x10,%esp
    449f:	8b 45 ec             	mov    -0x14(%ebp),%eax
    44a2:	8b 40 78             	mov    0x78(%eax),%eax
    44a5:	85 c0                	test   %eax,%eax
    44a7:	74 1c                	je     44c5 <msg_send+0x1db>
    44a9:	68 16 01 00 00       	push   $0x116
    44ae:	68 a0 d5 00 00       	push   $0xd5a0
    44b3:	68 a0 d5 00 00       	push   $0xd5a0
    44b8:	68 05 d7 00 00       	push   $0xd705
    44bd:	e8 1b 82 00 00       	call   c6dd <assertion_failure>
    44c2:	83 c4 10             	add    $0x10,%esp
    44c5:	8b 45 ec             	mov    -0x14(%ebp),%eax
    44c8:	8b 40 7c             	mov    0x7c(%eax),%eax
    44cb:	83 f8 39             	cmp    $0x39,%eax
    44ce:	74 1c                	je     44ec <msg_send+0x202>
    44d0:	68 17 01 00 00       	push   $0x117
    44d5:	68 a0 d5 00 00       	push   $0xd5a0
    44da:	68 a0 d5 00 00       	push   $0xd5a0
    44df:	68 18 d7 00 00       	push   $0xd718
    44e4:	e8 f4 81 00 00       	call   c6dd <assertion_failure>
    44e9:	83 c4 10             	add    $0x10,%esp
    44ec:	8b 45 ec             	mov    -0x14(%ebp),%eax
    44ef:	8b 80 80 00 00 00    	mov    0x80(%eax),%eax
    44f5:	83 f8 39             	cmp    $0x39,%eax
    44f8:	74 1c                	je     4516 <msg_send+0x22c>
    44fa:	68 18 01 00 00       	push   $0x118
    44ff:	68 a0 d5 00 00       	push   $0xd5a0
    4504:	68 a0 d5 00 00       	push   $0xd5a0
    4509:	68 36 d7 00 00       	push   $0xd736
    450e:	e8 ca 81 00 00       	call   c6dd <assertion_failure>
    4513:	83 c4 10             	add    $0x10,%esp
    4516:	8b 45 f0             	mov    -0x10(%ebp),%eax
    4519:	8b 40 74             	mov    0x74(%eax),%eax
    451c:	85 c0                	test   %eax,%eax
    451e:	74 1c                	je     453c <msg_send+0x252>
    4520:	68 19 01 00 00       	push   $0x119
    4525:	68 a0 d5 00 00       	push   $0xd5a0
    452a:	68 a0 d5 00 00       	push   $0xd5a0
    452f:	68 52 d7 00 00       	push   $0xd752
    4534:	e8 a4 81 00 00       	call   c6dd <assertion_failure>
    4539:	83 c4 10             	add    $0x10,%esp
    453c:	8b 45 f0             	mov    -0x10(%ebp),%eax
    453f:	8b 40 78             	mov    0x78(%eax),%eax
    4542:	85 c0                	test   %eax,%eax
    4544:	74 1c                	je     4562 <msg_send+0x278>
    4546:	68 1a 01 00 00       	push   $0x11a
    454b:	68 a0 d5 00 00       	push   $0xd5a0
    4550:	68 a0 d5 00 00       	push   $0xd5a0
    4555:	68 67 d7 00 00       	push   $0xd767
    455a:	e8 7e 81 00 00       	call   c6dd <assertion_failure>
    455f:	83 c4 10             	add    $0x10,%esp
    4562:	8b 45 f0             	mov    -0x10(%ebp),%eax
    4565:	8b 40 7c             	mov    0x7c(%eax),%eax
    4568:	83 f8 39             	cmp    $0x39,%eax
    456b:	74 1c                	je     4589 <msg_send+0x29f>
    456d:	68 1b 01 00 00       	push   $0x11b
    4572:	68 a0 d5 00 00       	push   $0xd5a0
    4577:	68 a0 d5 00 00       	push   $0xd5a0
    457c:	68 7a d7 00 00       	push   $0xd77a
    4581:	e8 57 81 00 00       	call   c6dd <assertion_failure>
    4586:	83 c4 10             	add    $0x10,%esp
    4589:	8b 45 f0             	mov    -0x10(%ebp),%eax
    458c:	8b 80 80 00 00 00    	mov    0x80(%eax),%eax
    4592:	83 f8 39             	cmp    $0x39,%eax
    4595:	0f 84 75 01 00 00    	je     4710 <msg_send+0x426>
    459b:	68 1c 01 00 00       	push   $0x11c
    45a0:	68 a0 d5 00 00       	push   $0xd5a0
    45a5:	68 a0 d5 00 00       	push   $0xd5a0
    45aa:	68 98 d7 00 00       	push   $0xd798
    45af:	e8 29 81 00 00       	call   c6dd <assertion_failure>
    45b4:	83 c4 10             	add    $0x10,%esp
    45b7:	e9 54 01 00 00       	jmp    4710 <msg_send+0x426>
    45bc:	8b 45 f0             	mov    -0x10(%ebp),%eax
    45bf:	8b 40 74             	mov    0x74(%eax),%eax
    45c2:	83 c8 02             	or     $0x2,%eax
    45c5:	89 c2                	mov    %eax,%edx
    45c7:	8b 45 f0             	mov    -0x10(%ebp),%eax
    45ca:	89 50 74             	mov    %edx,0x74(%eax)
    45cd:	8b 45 f0             	mov    -0x10(%ebp),%eax
    45d0:	8b 40 74             	mov    0x74(%eax),%eax
    45d3:	83 f8 02             	cmp    $0x2,%eax
    45d6:	74 1c                	je     45f4 <msg_send+0x30a>
    45d8:	68 20 01 00 00       	push   $0x120
    45dd:	68 a0 d5 00 00       	push   $0xd5a0
    45e2:	68 a0 d5 00 00       	push   $0xd5a0
    45e7:	68 b4 d7 00 00       	push   $0xd7b4
    45ec:	e8 ec 80 00 00       	call   c6dd <assertion_failure>
    45f1:	83 c4 10             	add    $0x10,%esp
    45f4:	8b 45 f0             	mov    -0x10(%ebp),%eax
    45f7:	8b 55 0c             	mov    0xc(%ebp),%edx
    45fa:	89 90 80 00 00 00    	mov    %edx,0x80(%eax)
    4600:	8b 45 f0             	mov    -0x10(%ebp),%eax
    4603:	8b 55 10             	mov    0x10(%ebp),%edx
    4606:	89 50 78             	mov    %edx,0x78(%eax)
    4609:	8b 45 ec             	mov    -0x14(%ebp),%eax
    460c:	8b 80 88 00 00 00    	mov    0x88(%eax),%eax
    4612:	85 c0                	test   %eax,%eax
    4614:	74 35                	je     464b <msg_send+0x361>
    4616:	8b 45 ec             	mov    -0x14(%ebp),%eax
    4619:	8b 80 88 00 00 00    	mov    0x88(%eax),%eax
    461f:	89 45 f4             	mov    %eax,-0xc(%ebp)
    4622:	eb 0c                	jmp    4630 <msg_send+0x346>
    4624:	8b 45 f4             	mov    -0xc(%ebp),%eax
    4627:	8b 80 8c 00 00 00    	mov    0x8c(%eax),%eax
    462d:	89 45 f4             	mov    %eax,-0xc(%ebp)
    4630:	8b 45 f4             	mov    -0xc(%ebp),%eax
    4633:	8b 80 8c 00 00 00    	mov    0x8c(%eax),%eax
    4639:	85 c0                	test   %eax,%eax
    463b:	75 e7                	jne    4624 <msg_send+0x33a>
    463d:	8b 45 f4             	mov    -0xc(%ebp),%eax
    4640:	8b 55 f0             	mov    -0x10(%ebp),%edx
    4643:	89 90 8c 00 00 00    	mov    %edx,0x8c(%eax)
    4649:	eb 0c                	jmp    4657 <msg_send+0x36d>
    464b:	8b 45 ec             	mov    -0x14(%ebp),%eax
    464e:	8b 55 f0             	mov    -0x10(%ebp),%edx
    4651:	89 90 88 00 00 00    	mov    %edx,0x88(%eax)
    4657:	8b 45 f0             	mov    -0x10(%ebp),%eax
    465a:	c7 80 8c 00 00 00 00 	movl   $0x0,0x8c(%eax)
    4661:	00 00 00 
    4664:	83 ec 0c             	sub    $0xc,%esp
    4667:	ff 75 f0             	pushl  -0x10(%ebp)
    466a:	e8 14 fb ff ff       	call   4183 <block>
    466f:	83 c4 10             	add    $0x10,%esp
    4672:	8b 45 f0             	mov    -0x10(%ebp),%eax
    4675:	8b 40 74             	mov    0x74(%eax),%eax
    4678:	83 f8 02             	cmp    $0x2,%eax
    467b:	74 1c                	je     4699 <msg_send+0x3af>
    467d:	68 33 01 00 00       	push   $0x133
    4682:	68 a0 d5 00 00       	push   $0xd5a0
    4687:	68 a0 d5 00 00       	push   $0xd5a0
    468c:	68 b4 d7 00 00       	push   $0xd7b4
    4691:	e8 47 80 00 00       	call   c6dd <assertion_failure>
    4696:	83 c4 10             	add    $0x10,%esp
    4699:	8b 45 f0             	mov    -0x10(%ebp),%eax
    469c:	8b 40 78             	mov    0x78(%eax),%eax
    469f:	85 c0                	test   %eax,%eax
    46a1:	75 1c                	jne    46bf <msg_send+0x3d5>
    46a3:	68 34 01 00 00       	push   $0x134
    46a8:	68 a0 d5 00 00       	push   $0xd5a0
    46ad:	68 a0 d5 00 00       	push   $0xd5a0
    46b2:	68 cf d7 00 00       	push   $0xd7cf
    46b7:	e8 21 80 00 00       	call   c6dd <assertion_failure>
    46bc:	83 c4 10             	add    $0x10,%esp
    46bf:	8b 45 f0             	mov    -0x10(%ebp),%eax
    46c2:	8b 40 7c             	mov    0x7c(%eax),%eax
    46c5:	83 f8 39             	cmp    $0x39,%eax
    46c8:	74 1c                	je     46e6 <msg_send+0x3fc>
    46ca:	68 35 01 00 00       	push   $0x135
    46cf:	68 a0 d5 00 00       	push   $0xd5a0
    46d4:	68 a0 d5 00 00       	push   $0xd5a0
    46d9:	68 7a d7 00 00       	push   $0xd77a
    46de:	e8 fa 7f 00 00       	call   c6dd <assertion_failure>
    46e3:	83 c4 10             	add    $0x10,%esp
    46e6:	8b 45 f0             	mov    -0x10(%ebp),%eax
    46e9:	8b 80 80 00 00 00    	mov    0x80(%eax),%eax
    46ef:	39 45 0c             	cmp    %eax,0xc(%ebp)
    46f2:	74 1c                	je     4710 <msg_send+0x426>
    46f4:	68 36 01 00 00       	push   $0x136
    46f9:	68 a0 d5 00 00       	push   $0xd5a0
    46fe:	68 a0 d5 00 00       	push   $0xd5a0
    4703:	68 e2 d7 00 00       	push   $0xd7e2
    4708:	e8 d0 7f 00 00       	call   c6dd <assertion_failure>
    470d:	83 c4 10             	add    $0x10,%esp
    4710:	b8 00 00 00 00       	mov    $0x0,%eax
    4715:	8b 5d fc             	mov    -0x4(%ebp),%ebx
    4718:	c9                   	leave  
    4719:	c3                   	ret    

0000471a <msg_receive>:
    471a:	55                   	push   %ebp
    471b:	89 e5                	mov    %esp,%ebp
    471d:	53                   	push   %ebx
    471e:	83 ec 54             	sub    $0x54,%esp
    4721:	8b 45 08             	mov    0x8(%ebp),%eax
    4724:	89 45 e4             	mov    %eax,-0x1c(%ebp)
    4727:	c7 45 f4 00 00 00 00 	movl   $0x0,-0xc(%ebp)
    472e:	c7 45 f0 00 00 00 00 	movl   $0x0,-0x10(%ebp)
    4735:	c7 45 ec 00 00 00 00 	movl   $0x0,-0x14(%ebp)
    473c:	8b 45 e4             	mov    -0x1c(%ebp),%eax
    473f:	2d a0 a4 03 00       	sub    $0x3a4a0,%eax
    4744:	c1 f8 03             	sar    $0x3,%eax
    4747:	69 c0 fb fa fa fa    	imul   $0xfafafafb,%eax,%eax
    474d:	39 45 0c             	cmp    %eax,0xc(%ebp)
    4750:	75 1c                	jne    476e <msg_receive+0x54>
    4752:	68 57 01 00 00       	push   $0x157
    4757:	68 a0 d5 00 00       	push   $0xd5a0
    475c:	68 a0 d5 00 00       	push   $0xd5a0
    4761:	68 fc d7 00 00       	push   $0xd7fc
    4766:	e8 72 7f 00 00       	call   c6dd <assertion_failure>
    476b:	83 c4 10             	add    $0x10,%esp
    476e:	8b 45 e4             	mov    -0x1c(%ebp),%eax
    4771:	8b 80 84 00 00 00    	mov    0x84(%eax),%eax
    4777:	85 c0                	test   %eax,%eax
    4779:	0f 84 39 01 00 00    	je     48b8 <msg_receive+0x19e>
    477f:	83 7d 0c 2f          	cmpl   $0x2f,0xc(%ebp)
    4783:	74 0a                	je     478f <msg_receive+0x75>
    4785:	83 7d 0c f6          	cmpl   $0xfffffff6,0xc(%ebp)
    4789:	0f 85 29 01 00 00    	jne    48b8 <msg_receive+0x19e>
    478f:	83 ec 0c             	sub    $0xc,%esp
    4792:	8d 45 b4             	lea    -0x4c(%ebp),%eax
    4795:	50                   	push   %eax
    4796:	e8 cd f9 ff ff       	call   4168 <reset_msg>
    479b:	83 c4 10             	add    $0x10,%esp
    479e:	c7 45 b4 f6 ff ff ff 	movl   $0xfffffff6,-0x4c(%ebp)
    47a5:	c7 45 b8 01 00 00 00 	movl   $0x1,-0x48(%ebp)
    47ac:	83 7d 10 00          	cmpl   $0x0,0x10(%ebp)
    47b0:	75 1c                	jne    47ce <msg_receive+0xb4>
    47b2:	68 64 01 00 00       	push   $0x164
    47b7:	68 a0 d5 00 00       	push   $0xd5a0
    47bc:	68 a0 d5 00 00       	push   $0xd5a0
    47c1:	68 ee d6 00 00       	push   $0xd6ee
    47c6:	e8 12 7f 00 00       	call   c6dd <assertion_failure>
    47cb:	83 c4 10             	add    $0x10,%esp
    47ce:	8b 45 e4             	mov    -0x1c(%ebp),%eax
    47d1:	2d a0 a4 03 00       	sub    $0x3a4a0,%eax
    47d6:	c1 f8 03             	sar    $0x3,%eax
    47d9:	69 c0 fb fa fa fa    	imul   $0xfafafafb,%eax,%eax
    47df:	83 ec 08             	sub    $0x8,%esp
    47e2:	ff 75 10             	pushl  0x10(%ebp)
    47e5:	50                   	push   %eax
    47e6:	e8 1c f9 ff ff       	call   4107 <va2la>
    47eb:	83 c4 10             	add    $0x10,%esp
    47ee:	89 c2                	mov    %eax,%edx
    47f0:	83 ec 04             	sub    $0x4,%esp
    47f3:	6a 30                	push   $0x30
    47f5:	8d 45 b4             	lea    -0x4c(%ebp),%eax
    47f8:	50                   	push   %eax
    47f9:	52                   	push   %edx
    47fa:	e8 51 7c 00 00       	call   c450 <memcpy>
    47ff:	83 c4 10             	add    $0x10,%esp
    4802:	8b 45 e4             	mov    -0x1c(%ebp),%eax
    4805:	c7 80 84 00 00 00 00 	movl   $0x0,0x84(%eax)
    480c:	00 00 00 
    480f:	8b 45 e4             	mov    -0x1c(%ebp),%eax
    4812:	8b 40 74             	mov    0x74(%eax),%eax
    4815:	85 c0                	test   %eax,%eax
    4817:	74 1c                	je     4835 <msg_receive+0x11b>
    4819:	68 6b 01 00 00       	push   $0x16b
    481e:	68 a0 d5 00 00       	push   $0xd5a0
    4823:	68 a0 d5 00 00       	push   $0xd5a0
    4828:	68 20 d8 00 00       	push   $0xd820
    482d:	e8 ab 7e 00 00       	call   c6dd <assertion_failure>
    4832:	83 c4 10             	add    $0x10,%esp
    4835:	8b 45 e4             	mov    -0x1c(%ebp),%eax
    4838:	8b 40 78             	mov    0x78(%eax),%eax
    483b:	85 c0                	test   %eax,%eax
    483d:	74 1c                	je     485b <msg_receive+0x141>
    483f:	68 6c 01 00 00       	push   $0x16c
    4844:	68 a0 d5 00 00       	push   $0xd5a0
    4849:	68 a0 d5 00 00       	push   $0xd5a0
    484e:	68 3f d8 00 00       	push   $0xd83f
    4853:	e8 85 7e 00 00       	call   c6dd <assertion_failure>
    4858:	83 c4 10             	add    $0x10,%esp
    485b:	8b 45 e4             	mov    -0x1c(%ebp),%eax
    485e:	8b 80 80 00 00 00    	mov    0x80(%eax),%eax
    4864:	83 f8 39             	cmp    $0x39,%eax
    4867:	74 1c                	je     4885 <msg_receive+0x16b>
    4869:	68 6d 01 00 00       	push   $0x16d
    486e:	68 a0 d5 00 00       	push   $0xd5a0
    4873:	68 a0 d5 00 00       	push   $0xd5a0
    4878:	68 5c d8 00 00       	push   $0xd85c
    487d:	e8 5b 7e 00 00       	call   c6dd <assertion_failure>
    4882:	83 c4 10             	add    $0x10,%esp
    4885:	8b 45 e4             	mov    -0x1c(%ebp),%eax
    4888:	8b 80 84 00 00 00    	mov    0x84(%eax),%eax
    488e:	85 c0                	test   %eax,%eax
    4890:	74 1c                	je     48ae <msg_receive+0x194>
    4892:	68 6e 01 00 00       	push   $0x16e
    4897:	68 a0 d5 00 00       	push   $0xd5a0
    489c:	68 a0 d5 00 00       	push   $0xd5a0
    48a1:	68 84 d8 00 00       	push   $0xd884
    48a6:	e8 32 7e 00 00       	call   c6dd <assertion_failure>
    48ab:	83 c4 10             	add    $0x10,%esp
    48ae:	b8 00 00 00 00       	mov    $0x0,%eax
    48b3:	e9 7d 06 00 00       	jmp    4f35 <msg_receive+0x81b>
    48b8:	83 7d 0c 2f          	cmpl   $0x2f,0xc(%ebp)
    48bc:	0f 85 a2 01 00 00    	jne    4a64 <msg_receive+0x34a>
    48c2:	8b 45 e4             	mov    -0x1c(%ebp),%eax
    48c5:	8b 80 88 00 00 00    	mov    0x88(%eax),%eax
    48cb:	85 c0                	test   %eax,%eax
    48cd:	0f 84 f0 03 00 00    	je     4cc3 <msg_receive+0x5a9>
    48d3:	8b 45 e4             	mov    -0x1c(%ebp),%eax
    48d6:	8b 80 88 00 00 00    	mov    0x88(%eax),%eax
    48dc:	89 45 f4             	mov    %eax,-0xc(%ebp)
    48df:	c7 45 ec 01 00 00 00 	movl   $0x1,-0x14(%ebp)
    48e6:	8b 45 e4             	mov    -0x1c(%ebp),%eax
    48e9:	8b 40 74             	mov    0x74(%eax),%eax
    48ec:	85 c0                	test   %eax,%eax
    48ee:	74 1c                	je     490c <msg_receive+0x1f2>
    48f0:	68 7e 01 00 00       	push   $0x17e
    48f5:	68 a0 d5 00 00       	push   $0xd5a0
    48fa:	68 a0 d5 00 00       	push   $0xd5a0
    48ff:	68 20 d8 00 00       	push   $0xd820
    4904:	e8 d4 7d 00 00       	call   c6dd <assertion_failure>
    4909:	83 c4 10             	add    $0x10,%esp
    490c:	8b 45 e4             	mov    -0x1c(%ebp),%eax
    490f:	8b 40 78             	mov    0x78(%eax),%eax
    4912:	85 c0                	test   %eax,%eax
    4914:	74 1c                	je     4932 <msg_receive+0x218>
    4916:	68 7f 01 00 00       	push   $0x17f
    491b:	68 a0 d5 00 00       	push   $0xd5a0
    4920:	68 a0 d5 00 00       	push   $0xd5a0
    4925:	68 3f d8 00 00       	push   $0xd83f
    492a:	e8 ae 7d 00 00       	call   c6dd <assertion_failure>
    492f:	83 c4 10             	add    $0x10,%esp
    4932:	8b 45 e4             	mov    -0x1c(%ebp),%eax
    4935:	8b 40 7c             	mov    0x7c(%eax),%eax
    4938:	83 f8 39             	cmp    $0x39,%eax
    493b:	74 1c                	je     4959 <msg_receive+0x23f>
    493d:	68 80 01 00 00       	push   $0x180
    4942:	68 a0 d5 00 00       	push   $0xd5a0
    4947:	68 a0 d5 00 00       	push   $0xd5a0
    494c:	68 a8 d8 00 00       	push   $0xd8a8
    4951:	e8 87 7d 00 00       	call   c6dd <assertion_failure>
    4956:	83 c4 10             	add    $0x10,%esp
    4959:	8b 45 e4             	mov    -0x1c(%ebp),%eax
    495c:	8b 80 80 00 00 00    	mov    0x80(%eax),%eax
    4962:	83 f8 39             	cmp    $0x39,%eax
    4965:	74 1c                	je     4983 <msg_receive+0x269>
    4967:	68 81 01 00 00       	push   $0x181
    496c:	68 a0 d5 00 00       	push   $0xd5a0
    4971:	68 a0 d5 00 00       	push   $0xd5a0
    4976:	68 5c d8 00 00       	push   $0xd85c
    497b:	e8 5d 7d 00 00       	call   c6dd <assertion_failure>
    4980:	83 c4 10             	add    $0x10,%esp
    4983:	8b 45 e4             	mov    -0x1c(%ebp),%eax
    4986:	8b 80 88 00 00 00    	mov    0x88(%eax),%eax
    498c:	85 c0                	test   %eax,%eax
    498e:	75 1c                	jne    49ac <msg_receive+0x292>
    4990:	68 82 01 00 00       	push   $0x182
    4995:	68 a0 d5 00 00       	push   $0xd5a0
    499a:	68 a0 d5 00 00       	push   $0xd5a0
    499f:	68 d0 d8 00 00       	push   $0xd8d0
    49a4:	e8 34 7d 00 00       	call   c6dd <assertion_failure>
    49a9:	83 c4 10             	add    $0x10,%esp
    49ac:	8b 45 f4             	mov    -0xc(%ebp),%eax
    49af:	8b 40 74             	mov    0x74(%eax),%eax
    49b2:	83 f8 02             	cmp    $0x2,%eax
    49b5:	74 1c                	je     49d3 <msg_receive+0x2b9>
    49b7:	68 83 01 00 00       	push   $0x183
    49bc:	68 a0 d5 00 00       	push   $0xd5a0
    49c1:	68 a0 d5 00 00       	push   $0xd5a0
    49c6:	68 f1 d8 00 00       	push   $0xd8f1
    49cb:	e8 0d 7d 00 00       	call   c6dd <assertion_failure>
    49d0:	83 c4 10             	add    $0x10,%esp
    49d3:	8b 45 f4             	mov    -0xc(%ebp),%eax
    49d6:	8b 40 78             	mov    0x78(%eax),%eax
    49d9:	85 c0                	test   %eax,%eax
    49db:	75 1c                	jne    49f9 <msg_receive+0x2df>
    49dd:	68 84 01 00 00       	push   $0x184
    49e2:	68 a0 d5 00 00       	push   $0xd5a0
    49e7:	68 a0 d5 00 00       	push   $0xd5a0
    49ec:	68 0c d9 00 00       	push   $0xd90c
    49f1:	e8 e7 7c 00 00       	call   c6dd <assertion_failure>
    49f6:	83 c4 10             	add    $0x10,%esp
    49f9:	8b 45 f4             	mov    -0xc(%ebp),%eax
    49fc:	8b 40 7c             	mov    0x7c(%eax),%eax
    49ff:	83 f8 39             	cmp    $0x39,%eax
    4a02:	74 1c                	je     4a20 <msg_receive+0x306>
    4a04:	68 85 01 00 00       	push   $0x185
    4a09:	68 a0 d5 00 00       	push   $0xd5a0
    4a0e:	68 a0 d5 00 00       	push   $0xd5a0
    4a13:	68 1f d9 00 00       	push   $0xd91f
    4a18:	e8 c0 7c 00 00       	call   c6dd <assertion_failure>
    4a1d:	83 c4 10             	add    $0x10,%esp
    4a20:	8b 45 f4             	mov    -0xc(%ebp),%eax
    4a23:	8b 80 80 00 00 00    	mov    0x80(%eax),%eax
    4a29:	8b 55 e4             	mov    -0x1c(%ebp),%edx
    4a2c:	81 ea a0 a4 03 00    	sub    $0x3a4a0,%edx
    4a32:	c1 fa 03             	sar    $0x3,%edx
    4a35:	69 d2 fb fa fa fa    	imul   $0xfafafafb,%edx,%edx
    4a3b:	39 d0                	cmp    %edx,%eax
    4a3d:	0f 84 80 02 00 00    	je     4cc3 <msg_receive+0x5a9>
    4a43:	68 86 01 00 00       	push   $0x186
    4a48:	68 a0 d5 00 00       	push   $0xd5a0
    4a4d:	68 a0 d5 00 00       	push   $0xd5a0
    4a52:	68 40 d9 00 00       	push   $0xd940
    4a57:	e8 81 7c 00 00       	call   c6dd <assertion_failure>
    4a5c:	83 c4 10             	add    $0x10,%esp
    4a5f:	e9 5f 02 00 00       	jmp    4cc3 <msg_receive+0x5a9>
    4a64:	83 7d 0c 00          	cmpl   $0x0,0xc(%ebp)
    4a68:	0f 88 55 02 00 00    	js     4cc3 <msg_receive+0x5a9>
    4a6e:	83 7d 0c 24          	cmpl   $0x24,0xc(%ebp)
    4a72:	0f 8f 4b 02 00 00    	jg     4cc3 <msg_receive+0x5a9>
    4a78:	8b 45 0c             	mov    0xc(%ebp),%eax
    4a7b:	69 c0 98 01 00 00    	imul   $0x198,%eax,%eax
    4a81:	05 a0 a4 03 00       	add    $0x3a4a0,%eax
    4a86:	89 45 f4             	mov    %eax,-0xc(%ebp)
    4a89:	8b 45 f4             	mov    -0xc(%ebp),%eax
    4a8c:	8b 40 74             	mov    0x74(%eax),%eax
    4a8f:	83 e0 02             	and    $0x2,%eax
    4a92:	85 c0                	test   %eax,%eax
    4a94:	0f 84 29 02 00 00    	je     4cc3 <msg_receive+0x5a9>
    4a9a:	8b 45 f4             	mov    -0xc(%ebp),%eax
    4a9d:	8b 80 80 00 00 00    	mov    0x80(%eax),%eax
    4aa3:	8b 55 e4             	mov    -0x1c(%ebp),%edx
    4aa6:	81 ea a0 a4 03 00    	sub    $0x3a4a0,%edx
    4aac:	c1 fa 03             	sar    $0x3,%edx
    4aaf:	69 d2 fb fa fa fa    	imul   $0xfafafafb,%edx,%edx
    4ab5:	39 d0                	cmp    %edx,%eax
    4ab7:	0f 85 06 02 00 00    	jne    4cc3 <msg_receive+0x5a9>
    4abd:	c7 45 ec 01 00 00 00 	movl   $0x1,-0x14(%ebp)
    4ac4:	8b 45 e4             	mov    -0x1c(%ebp),%eax
    4ac7:	8b 80 88 00 00 00    	mov    0x88(%eax),%eax
    4acd:	89 45 e8             	mov    %eax,-0x18(%ebp)
    4ad0:	83 7d e8 00          	cmpl   $0x0,-0x18(%ebp)
    4ad4:	75 6f                	jne    4b45 <msg_receive+0x42b>
    4ad6:	68 98 01 00 00       	push   $0x198
    4adb:	68 a0 d5 00 00       	push   $0xd5a0
    4ae0:	68 a0 d5 00 00       	push   $0xd5a0
    4ae5:	68 6f d9 00 00       	push   $0xd96f
    4aea:	e8 ee 7b 00 00       	call   c6dd <assertion_failure>
    4aef:	83 c4 10             	add    $0x10,%esp
    4af2:	eb 51                	jmp    4b45 <msg_receive+0x42b>
    4af4:	8b 45 f4             	mov    -0xc(%ebp),%eax
    4af7:	8b 40 74             	mov    0x74(%eax),%eax
    4afa:	83 e0 02             	and    $0x2,%eax
    4afd:	85 c0                	test   %eax,%eax
    4aff:	75 1c                	jne    4b1d <msg_receive+0x403>
    4b01:	68 9d 01 00 00       	push   $0x19d
    4b06:	68 a0 d5 00 00       	push   $0xd5a0
    4b0b:	68 a0 d5 00 00       	push   $0xd5a0
    4b10:	68 71 d9 00 00       	push   $0xd971
    4b15:	e8 c3 7b 00 00       	call   c6dd <assertion_failure>
    4b1a:	83 c4 10             	add    $0x10,%esp
    4b1d:	8b 45 e8             	mov    -0x18(%ebp),%eax
    4b20:	2d a0 a4 03 00       	sub    $0x3a4a0,%eax
    4b25:	c1 f8 03             	sar    $0x3,%eax
    4b28:	69 c0 fb fa fa fa    	imul   $0xfafafafb,%eax,%eax
    4b2e:	39 45 0c             	cmp    %eax,0xc(%ebp)
    4b31:	74 1a                	je     4b4d <msg_receive+0x433>
    4b33:	8b 45 e8             	mov    -0x18(%ebp),%eax
    4b36:	89 45 f0             	mov    %eax,-0x10(%ebp)
    4b39:	8b 45 e8             	mov    -0x18(%ebp),%eax
    4b3c:	8b 80 8c 00 00 00    	mov    0x8c(%eax),%eax
    4b42:	89 45 e8             	mov    %eax,-0x18(%ebp)
    4b45:	83 7d e8 00          	cmpl   $0x0,-0x18(%ebp)
    4b49:	75 a9                	jne    4af4 <msg_receive+0x3da>
    4b4b:	eb 01                	jmp    4b4e <msg_receive+0x434>
    4b4d:	90                   	nop
    4b4e:	8b 45 e4             	mov    -0x1c(%ebp),%eax
    4b51:	8b 40 74             	mov    0x74(%eax),%eax
    4b54:	85 c0                	test   %eax,%eax
    4b56:	74 1c                	je     4b74 <msg_receive+0x45a>
    4b58:	68 a6 01 00 00       	push   $0x1a6
    4b5d:	68 a0 d5 00 00       	push   $0xd5a0
    4b62:	68 a0 d5 00 00       	push   $0xd5a0
    4b67:	68 20 d8 00 00       	push   $0xd820
    4b6c:	e8 6c 7b 00 00       	call   c6dd <assertion_failure>
    4b71:	83 c4 10             	add    $0x10,%esp
    4b74:	8b 45 e4             	mov    -0x1c(%ebp),%eax
    4b77:	8b 40 78             	mov    0x78(%eax),%eax
    4b7a:	85 c0                	test   %eax,%eax
    4b7c:	74 1c                	je     4b9a <msg_receive+0x480>
    4b7e:	68 a7 01 00 00       	push   $0x1a7
    4b83:	68 a0 d5 00 00       	push   $0xd5a0
    4b88:	68 a0 d5 00 00       	push   $0xd5a0
    4b8d:	68 3f d8 00 00       	push   $0xd83f
    4b92:	e8 46 7b 00 00       	call   c6dd <assertion_failure>
    4b97:	83 c4 10             	add    $0x10,%esp
    4b9a:	8b 45 e4             	mov    -0x1c(%ebp),%eax
    4b9d:	8b 40 7c             	mov    0x7c(%eax),%eax
    4ba0:	83 f8 39             	cmp    $0x39,%eax
    4ba3:	74 1c                	je     4bc1 <msg_receive+0x4a7>
    4ba5:	68 a8 01 00 00       	push   $0x1a8
    4baa:	68 a0 d5 00 00       	push   $0xd5a0
    4baf:	68 a0 d5 00 00       	push   $0xd5a0
    4bb4:	68 a8 d8 00 00       	push   $0xd8a8
    4bb9:	e8 1f 7b 00 00       	call   c6dd <assertion_failure>
    4bbe:	83 c4 10             	add    $0x10,%esp
    4bc1:	8b 45 e4             	mov    -0x1c(%ebp),%eax
    4bc4:	8b 80 80 00 00 00    	mov    0x80(%eax),%eax
    4bca:	83 f8 39             	cmp    $0x39,%eax
    4bcd:	74 1c                	je     4beb <msg_receive+0x4d1>
    4bcf:	68 a9 01 00 00       	push   $0x1a9
    4bd4:	68 a0 d5 00 00       	push   $0xd5a0
    4bd9:	68 a0 d5 00 00       	push   $0xd5a0
    4bde:	68 5c d8 00 00       	push   $0xd85c
    4be3:	e8 f5 7a 00 00       	call   c6dd <assertion_failure>
    4be8:	83 c4 10             	add    $0x10,%esp
    4beb:	8b 45 e4             	mov    -0x1c(%ebp),%eax
    4bee:	8b 80 88 00 00 00    	mov    0x88(%eax),%eax
    4bf4:	85 c0                	test   %eax,%eax
    4bf6:	75 1c                	jne    4c14 <msg_receive+0x4fa>
    4bf8:	68 aa 01 00 00       	push   $0x1aa
    4bfd:	68 a0 d5 00 00       	push   $0xd5a0
    4c02:	68 a0 d5 00 00       	push   $0xd5a0
    4c07:	68 d0 d8 00 00       	push   $0xd8d0
    4c0c:	e8 cc 7a 00 00       	call   c6dd <assertion_failure>
    4c11:	83 c4 10             	add    $0x10,%esp
    4c14:	8b 45 f4             	mov    -0xc(%ebp),%eax
    4c17:	8b 40 74             	mov    0x74(%eax),%eax
    4c1a:	83 f8 02             	cmp    $0x2,%eax
    4c1d:	74 1c                	je     4c3b <msg_receive+0x521>
    4c1f:	68 ab 01 00 00       	push   $0x1ab
    4c24:	68 a0 d5 00 00       	push   $0xd5a0
    4c29:	68 a0 d5 00 00       	push   $0xd5a0
    4c2e:	68 f1 d8 00 00       	push   $0xd8f1
    4c33:	e8 a5 7a 00 00       	call   c6dd <assertion_failure>
    4c38:	83 c4 10             	add    $0x10,%esp
    4c3b:	8b 45 f4             	mov    -0xc(%ebp),%eax
    4c3e:	8b 40 78             	mov    0x78(%eax),%eax
    4c41:	85 c0                	test   %eax,%eax
    4c43:	75 1c                	jne    4c61 <msg_receive+0x547>
    4c45:	68 ac 01 00 00       	push   $0x1ac
    4c4a:	68 a0 d5 00 00       	push   $0xd5a0
    4c4f:	68 a0 d5 00 00       	push   $0xd5a0
    4c54:	68 0c d9 00 00       	push   $0xd90c
    4c59:	e8 7f 7a 00 00       	call   c6dd <assertion_failure>
    4c5e:	83 c4 10             	add    $0x10,%esp
    4c61:	8b 45 f4             	mov    -0xc(%ebp),%eax
    4c64:	8b 40 7c             	mov    0x7c(%eax),%eax
    4c67:	83 f8 39             	cmp    $0x39,%eax
    4c6a:	74 1c                	je     4c88 <msg_receive+0x56e>
    4c6c:	68 ad 01 00 00       	push   $0x1ad
    4c71:	68 a0 d5 00 00       	push   $0xd5a0
    4c76:	68 a0 d5 00 00       	push   $0xd5a0
    4c7b:	68 1f d9 00 00       	push   $0xd91f
    4c80:	e8 58 7a 00 00       	call   c6dd <assertion_failure>
    4c85:	83 c4 10             	add    $0x10,%esp
    4c88:	8b 45 f4             	mov    -0xc(%ebp),%eax
    4c8b:	8b 80 80 00 00 00    	mov    0x80(%eax),%eax
    4c91:	8b 55 e4             	mov    -0x1c(%ebp),%edx
    4c94:	81 ea a0 a4 03 00    	sub    $0x3a4a0,%edx
    4c9a:	c1 fa 03             	sar    $0x3,%edx
    4c9d:	69 d2 fb fa fa fa    	imul   $0xfafafafb,%edx,%edx
    4ca3:	39 d0                	cmp    %edx,%eax
    4ca5:	74 1c                	je     4cc3 <msg_receive+0x5a9>
    4ca7:	68 ae 01 00 00       	push   $0x1ae
    4cac:	68 a0 d5 00 00       	push   $0xd5a0
    4cb1:	68 a0 d5 00 00       	push   $0xd5a0
    4cb6:	68 40 d9 00 00       	push   $0xd940
    4cbb:	e8 1d 7a 00 00       	call   c6dd <assertion_failure>
    4cc0:	83 c4 10             	add    $0x10,%esp
    4cc3:	83 7d ec 00          	cmpl   $0x0,-0x14(%ebp)
    4cc7:	0f 84 6b 01 00 00    	je     4e38 <msg_receive+0x71e>
    4ccd:	8b 45 e4             	mov    -0x1c(%ebp),%eax
    4cd0:	8b 80 88 00 00 00    	mov    0x88(%eax),%eax
    4cd6:	39 45 f4             	cmp    %eax,-0xc(%ebp)
    4cd9:	75 43                	jne    4d1e <msg_receive+0x604>
    4cdb:	83 7d f0 00          	cmpl   $0x0,-0x10(%ebp)
    4cdf:	74 1c                	je     4cfd <msg_receive+0x5e3>
    4ce1:	68 b9 01 00 00       	push   $0x1b9
    4ce6:	68 a0 d5 00 00       	push   $0xd5a0
    4ceb:	68 a0 d5 00 00       	push   $0xd5a0
    4cf0:	68 8b d9 00 00       	push   $0xd98b
    4cf5:	e8 e3 79 00 00       	call   c6dd <assertion_failure>
    4cfa:	83 c4 10             	add    $0x10,%esp
    4cfd:	8b 45 f4             	mov    -0xc(%ebp),%eax
    4d00:	8b 90 8c 00 00 00    	mov    0x8c(%eax),%edx
    4d06:	8b 45 e4             	mov    -0x1c(%ebp),%eax
    4d09:	89 90 88 00 00 00    	mov    %edx,0x88(%eax)
    4d0f:	8b 45 f4             	mov    -0xc(%ebp),%eax
    4d12:	c7 80 8c 00 00 00 00 	movl   $0x0,0x8c(%eax)
    4d19:	00 00 00 
    4d1c:	eb 41                	jmp    4d5f <msg_receive+0x645>
    4d1e:	83 7d f0 00          	cmpl   $0x0,-0x10(%ebp)
    4d22:	75 1c                	jne    4d40 <msg_receive+0x626>
    4d24:	68 be 01 00 00       	push   $0x1be
    4d29:	68 a0 d5 00 00       	push   $0xd5a0
    4d2e:	68 a0 d5 00 00       	push   $0xd5a0
    4d33:	68 95 d9 00 00       	push   $0xd995
    4d38:	e8 a0 79 00 00       	call   c6dd <assertion_failure>
    4d3d:	83 c4 10             	add    $0x10,%esp
    4d40:	8b 45 f4             	mov    -0xc(%ebp),%eax
    4d43:	8b 90 8c 00 00 00    	mov    0x8c(%eax),%edx
    4d49:	8b 45 f0             	mov    -0x10(%ebp),%eax
    4d4c:	89 90 8c 00 00 00    	mov    %edx,0x8c(%eax)
    4d52:	8b 45 f4             	mov    -0xc(%ebp),%eax
    4d55:	c7 80 8c 00 00 00 00 	movl   $0x0,0x8c(%eax)
    4d5c:	00 00 00 
    4d5f:	83 7d 10 00          	cmpl   $0x0,0x10(%ebp)
    4d63:	75 1c                	jne    4d81 <msg_receive+0x667>
    4d65:	68 c3 01 00 00       	push   $0x1c3
    4d6a:	68 a0 d5 00 00       	push   $0xd5a0
    4d6f:	68 a0 d5 00 00       	push   $0xd5a0
    4d74:	68 ee d6 00 00       	push   $0xd6ee
    4d79:	e8 5f 79 00 00       	call   c6dd <assertion_failure>
    4d7e:	83 c4 10             	add    $0x10,%esp
    4d81:	8b 45 f4             	mov    -0xc(%ebp),%eax
    4d84:	8b 40 78             	mov    0x78(%eax),%eax
    4d87:	85 c0                	test   %eax,%eax
    4d89:	75 1c                	jne    4da7 <msg_receive+0x68d>
    4d8b:	68 c4 01 00 00       	push   $0x1c4
    4d90:	68 a0 d5 00 00       	push   $0xd5a0
    4d95:	68 a0 d5 00 00       	push   $0xd5a0
    4d9a:	68 9a d9 00 00       	push   $0xd99a
    4d9f:	e8 39 79 00 00       	call   c6dd <assertion_failure>
